
no-codegen.elf:     file format elf32-littlearm

Sections:
Idx Name          Size      VMA       LMA       File off  Algn
  0 .isr_vector   000001ac  08000000  08000000  00001000  2**0
                  CONTENTS, ALLOC, LOAD, READONLY, DATA
  1 .text         00001ac4  080001ac  080001ac  000011ac  2**2
                  CONTENTS, ALLOC, LOAD, READONLY, CODE
  2 .rodata       00000138  08001c70  08001c70  00002c70  2**2
                  CONTENTS, ALLOC, LOAD, READONLY, DATA
  3 .ARM.extab    00000000  08001da8  08001da8  00002db0  2**0
                  CONTENTS, READONLY
  4 .ARM          00000000  08001da8  08001da8  00002db0  2**0
                  CONTENTS, READONLY
  5 .preinit_array 00000000  08001da8  08001db0  00002db0  2**0
                  CONTENTS, ALLOC, LOAD, DATA
  6 .init_array   00000004  08001da8  08001da8  00002da8  2**2
                  CONTENTS, ALLOC, LOAD, READONLY, DATA
  7 .fini_array   00000004  08001dac  08001dac  00002dac  2**2
                  CONTENTS, ALLOC, LOAD, READONLY, DATA
  8 .data         00000000  20000000  20000000  00002db0  2**0
                  CONTENTS, ALLOC, LOAD, DATA
  9 .ccmram       00000000  10000000  10000000  00002db0  2**0
                  CONTENTS
 10 .bss          0000002c  20000000  20000000  00003000  2**2
                  ALLOC
 11 ._user_heap_stack 00000604  2000002c  2000002c  00003000  2**0
                  ALLOC
 12 .noinit.crash 00000040  2002ff00  2002ff00  00002f00  2**2
                  ALLOC
 13 .ARM.attributes 00000030  00000000  00000000  00002db0  2**0
                  CONTENTS, READONLY
 14 .debug_info   00002973  00000000  00000000  00002de0  2**0
                  CONTENTS, READONLY, DEBUGGING, OCTETS
 15 .debug_abbrev 0000101b  00000000  00000000  00005753  2**0
                  CONTENTS, READONLY, DEBUGGING, OCTETS
 16 .debug_aranges 00000340  00000000  00000000  00006770  2**3
                  CONTENTS, READONLY, DEBUGGING, OCTETS
 17 .debug_rnglists 00000241  00000000  00000000  00006ab0  2**0
                  CONTENTS, READONLY, DEBUGGING, OCTETS
 18 .debug_macro  0001bcc2  00000000  00000000  00006cf1  2**0
                  CONTENTS, READONLY, DEBUGGING, OCTETS
 19 .debug_line   00004e7a  00000000  00000000  000229b3  2**0
                  CONTENTS, READONLY, DEBUGGING, OCTETS
 20 .debug_str    00099205  00000000  00000000  0002782d  2**0
                  CONTENTS, READONLY, DEBUGGING, OCTETS
 21 .comment      00000043  00000000  00000000  000c0a32  2**0
                  CONTENTS, READONLY
 22 .debug_frame  00000a10  00000000  00000000  000c0a78  2**2
                  CONTENTS, READONLY, DEBUGGING, OCTETS
 23 .debug_line_str 00000056  00000000  00000000  000c1488  2**0
                  CONTENTS, READONLY, DEBUGGING, OCTETS

Disassembly of section .text:

080001ac <__do_global_dtors_aux>:
 80001ac:	b510      	push	{r4, lr}
 80001ae:	4c05      	ldr	r4, [pc, #20]	@ (80001c4 <__do_global_dtors_aux+0x18>)
 80001b0:	7823      	ldrb	r3, [r4, #0]
 80001b2:	b933      	cbnz	r3, 80001c2 <__do_global_dtors_aux+0x16>
 80001b4:	4b04      	ldr	r3, [pc, #16]	@ (80001c8 <__do_global_dtors_aux+0x1c>)
 80001b6:	b113      	cbz	r3, 80001be <__do_global_dtors_aux+0x12>
 80001b8:	4804      	ldr	r0, [pc, #16]	@ (80001cc <__do_global_dtors_aux+0x20>)
 80001ba:	f3af 8000 	nop.w
 80001be:	2301      	movs	r3, #1
 80001c0:	7023      	strb	r3, [r4, #0]
 80001c2:	bd10      	pop	{r4, pc}
 80001c4:	20000000 	.word	0x20000000
 80001c8:	00000000 	.word	0x00000000
 80001cc:	08001c58 	.word	0x08001c58

080001d0 <frame_dummy>:
 80001d0:	b508      	push	{r3, lr}
 80001d2:	4b03      	ldr	r3, [pc, #12]	@ (80001e0 <frame_dummy+0x10>)
 80001d4:	b11b      	cbz	r3, 80001de <frame_dummy+0xe>
 80001d6:	4903      	ldr	r1, [pc, #12]	@ (80001e4 <frame_dummy+0x14>)
 80001d8:	4803      	ldr	r0, [pc, #12]	@ (80001e8 <frame_dummy+0x18>)
 80001da:	f3af 8000 	nop.w
 80001de:	bd08      	pop	{r3, pc}
 80001e0:	00000000 	.word	0x00000000
 80001e4:	20000004 	.word	0x20000004
 80001e8:	08001c58 	.word	0x08001c58

080001ec <crashlog_valid>:
typedef char crashlog_size_check[(sizeof(crashlog_t) == 64) ? 1 : -1];

//.noinit
extern volatile crashlog_t g_crashlog;

static inline int crashlog_valid(void) {
 80001ec:	b480      	push	{r7}
 80001ee:	af00      	add	r7, sp, #0
    return (g_crashlog.magic == CRASHLOG_MAGIC) &&
 80001f0:	4b08      	ldr	r3, [pc, #32]	@ (8000214 <crashlog_valid+0x28>)
 80001f2:	681b      	ldr	r3, [r3, #0]
 80001f4:	4a08      	ldr	r2, [pc, #32]	@ (8000218 <crashlog_valid+0x2c>)
 80001f6:	4293      	cmp	r3, r2
 80001f8:	d105      	bne.n	8000206 <crashlog_valid+0x1a>
           (g_crashlog.ver   == CRASHLOG_VER);
 80001fa:	4b06      	ldr	r3, [pc, #24]	@ (8000214 <crashlog_valid+0x28>)
 80001fc:	685b      	ldr	r3, [r3, #4]
    return (g_crashlog.magic == CRASHLOG_MAGIC) &&
 80001fe:	2b01      	cmp	r3, #1
 8000200:	d101      	bne.n	8000206 <crashlog_valid+0x1a>
 8000202:	2301      	movs	r3, #1
 8000204:	e000      	b.n	8000208 <crashlog_valid+0x1c>
 8000206:	2300      	movs	r3, #0
}
 8000208:	4618      	mov	r0, r3
 800020a:	46bd      	mov	sp, r7
 800020c:	f85d 7b04 	ldr.w	r7, [sp], #4
 8000210:	4770      	bx	lr
 8000212:	bf00      	nop
 8000214:	2002ff00 	.word	0x2002ff00
 8000218:	434c4f47 	.word	0x434c4f47

0800021c <main>:
static void jump_to_app(void);




int main(void) {
 800021c:	b580      	push	{r7, lr}
 800021e:	b084      	sub	sp, #16
 8000220:	af00      	add	r7, sp, #0


	if(clock_hse_pll_168()){while(1);};
 8000222:	f000 fa7f 	bl	8000724 <clock_hse_pll_168>
 8000226:	4603      	mov	r3, r0
 8000228:	2b00      	cmp	r3, #0
 800022a:	d001      	beq.n	8000230 <main+0x14>
 800022c:	bf00      	nop
 800022e:	e7fd      	b.n	800022c <main+0x10>
	sys_init(1000);
 8000230:	f44f 707a 	mov.w	r0, #1000	@ 0x3e8
 8000234:	f001 fb6e 	bl	8001914 <sys_init>
	USART6_INIT();
 8000238:	f001 fbae 	bl	8001998 <USART6_INIT>
	i2c1_init(0);
 800023c:	2000      	movs	r0, #0
 800023e:	f000 ff65 	bl	800110c <i2c1_init>
	delay(5000);
 8000242:	f241 3088 	movw	r0, #5000	@ 0x1388
 8000246:	f001 fb85 	bl	8001954 <delay>
	uart_puts("BOOT start\n");
 800024a:	4817      	ldr	r0, [pc, #92]	@ (80002a8 <main+0x8c>)
 800024c:	f001 fc1e 	bl	8001a8c <uart_puts>

	// check crash
	int crash = crashlog_valid();
 8000250:	f7ff ffcc 	bl	80001ec <crashlog_valid>
 8000254:	60f8      	str	r0, [r7, #12]
	uint32_t crash_seq = crash ? g_crashlog.seq : 0;
 8000256:	68fb      	ldr	r3, [r7, #12]
 8000258:	2b00      	cmp	r3, #0
 800025a:	d002      	beq.n	8000262 <main+0x46>
 800025c:	4b13      	ldr	r3, [pc, #76]	@ (80002ac <main+0x90>)
 800025e:	689b      	ldr	r3, [r3, #8]
 8000260:	e000      	b.n	8000264 <main+0x48>
 8000262:	2300      	movs	r3, #0
 8000264:	60bb      	str	r3, [r7, #8]

	// crashlog -> eeprom
	boot_eeprom();
 8000266:	f000 fbf5 	bl	8000a54 <boot_eeprom>
	boot_dump_last_crash();
 800026a:	f000 fc33 	bl	8000ad4 <boot_dump_last_crash>
	// will be recovery?
	int enter_recovery = 0;
 800026e:	2300      	movs	r3, #0
 8000270:	607b      	str	r3, [r7, #4]
	eestate_boot_step(FAIL_LIMIT, crash, crash_seq, &enter_recovery);
 8000272:	1d3b      	adds	r3, r7, #4
 8000274:	68ba      	ldr	r2, [r7, #8]
 8000276:	68f9      	ldr	r1, [r7, #12]
 8000278:	2003      	movs	r0, #3
 800027a:	f000 fe57 	bl	8000f2c <eestate_boot_step>

	if (enter_recovery) {
 800027e:	687b      	ldr	r3, [r7, #4]
 8000280:	2b00      	cmp	r3, #0
 8000282:	d004      	beq.n	800028e <main+0x72>
		uart_puts("recovery\n");
 8000284:	480a      	ldr	r0, [pc, #40]	@ (80002b0 <main+0x94>)
 8000286:	f001 fc01 	bl	8001a8c <uart_puts>
		//TODO
		boot_dump_last_crash();
 800028a:	f000 fc23 	bl	8000ad4 <boot_dump_last_crash>
	}
	if (app_valid()) {
 800028e:	f000 f811 	bl	80002b4 <app_valid>
 8000292:	4603      	mov	r3, r0
 8000294:	2b00      	cmp	r3, #0
 8000296:	d001      	beq.n	800029c <main+0x80>
		jump_to_app();
 8000298:	f000 f844 	bl	8000324 <jump_to_app>
 800029c:	2300      	movs	r3, #0
	}

}
 800029e:	4618      	mov	r0, r3
 80002a0:	3710      	adds	r7, #16
 80002a2:	46bd      	mov	sp, r7
 80002a4:	bd80      	pop	{r7, pc}
 80002a6:	bf00      	nop
 80002a8:	08001c70 	.word	0x08001c70
 80002ac:	2002ff00 	.word	0x2002ff00
 80002b0:	08001c7c 	.word	0x08001c7c

080002b4 <app_valid>:

static int app_valid(void)
{
 80002b4:	b480      	push	{r7}
 80002b6:	b085      	sub	sp, #20
 80002b8:	af00      	add	r7, sp, #0
    uint32_t msp   = *(volatile uint32_t*)(APP_BASE + 0U);
 80002ba:	4b16      	ldr	r3, [pc, #88]	@ (8000314 <app_valid+0x60>)
 80002bc:	681b      	ldr	r3, [r3, #0]
 80002be:	60fb      	str	r3, [r7, #12]
    uint32_t reset = *(volatile uint32_t*)(APP_BASE + 4U);
 80002c0:	4b15      	ldr	r3, [pc, #84]	@ (8000318 <app_valid+0x64>)
 80002c2:	681b      	ldr	r3, [r3, #0]
 80002c4:	60bb      	str	r3, [r7, #8]

    // MSP in SRAM?
    if (msp < 0x20000000U || msp > 0x20040000U) return 0;
 80002c6:	68fb      	ldr	r3, [r7, #12]
 80002c8:	f1b3 5f00 	cmp.w	r3, #536870912	@ 0x20000000
 80002cc:	d303      	bcc.n	80002d6 <app_valid+0x22>
 80002ce:	68fb      	ldr	r3, [r7, #12]
 80002d0:	4a12      	ldr	r2, [pc, #72]	@ (800031c <app_valid+0x68>)
 80002d2:	4293      	cmp	r3, r2
 80002d4:	d901      	bls.n	80002da <app_valid+0x26>
 80002d6:	2300      	movs	r3, #0
 80002d8:	e015      	b.n	8000306 <app_valid+0x52>

    // check Thumb bit
    if ((reset & 1U) == 0U) return 0;
 80002da:	68bb      	ldr	r3, [r7, #8]
 80002dc:	f003 0301 	and.w	r3, r3, #1
 80002e0:	2b00      	cmp	r3, #0
 80002e2:	d101      	bne.n	80002e8 <app_valid+0x34>
 80002e4:	2300      	movs	r3, #0
 80002e6:	e00e      	b.n	8000306 <app_valid+0x52>

    uint32_t pc = reset & ~1U;
 80002e8:	68bb      	ldr	r3, [r7, #8]
 80002ea:	f023 0301 	bic.w	r3, r3, #1
 80002ee:	607b      	str	r3, [r7, #4]
    if (pc < APP_BASE || pc >= FLASH_END) return 0;
 80002f0:	687b      	ldr	r3, [r7, #4]
 80002f2:	4a0b      	ldr	r2, [pc, #44]	@ (8000320 <app_valid+0x6c>)
 80002f4:	4293      	cmp	r3, r2
 80002f6:	d903      	bls.n	8000300 <app_valid+0x4c>
 80002f8:	687b      	ldr	r3, [r7, #4]
 80002fa:	f1b3 6f02 	cmp.w	r3, #136314880	@ 0x8200000
 80002fe:	d301      	bcc.n	8000304 <app_valid+0x50>
 8000300:	2300      	movs	r3, #0
 8000302:	e000      	b.n	8000306 <app_valid+0x52>

    return 1;
 8000304:	2301      	movs	r3, #1
}
 8000306:	4618      	mov	r0, r3
 8000308:	3714      	adds	r7, #20
 800030a:	46bd      	mov	sp, r7
 800030c:	f85d 7b04 	ldr.w	r7, [sp], #4
 8000310:	4770      	bx	lr
 8000312:	bf00      	nop
 8000314:	08010000 	.word	0x08010000
 8000318:	08010004 	.word	0x08010004
 800031c:	20040000 	.word	0x20040000
 8000320:	0800ffff 	.word	0x0800ffff

08000324 <jump_to_app>:

static void jump_to_app(void)
{
 8000324:	b580      	push	{r7, lr}
 8000326:	b088      	sub	sp, #32
 8000328:	af00      	add	r7, sp, #0
	volatile uint32_t* NVIC_ICER=((volatile uint32_t*)((uintptr_t)NVIC_BASE + 0x180U));
 800032a:	4b26      	ldr	r3, [pc, #152]	@ (80003c4 <jump_to_app+0xa0>)
 800032c:	61bb      	str	r3, [r7, #24]
	volatile uint32_t* NVIC_ICPR=((volatile uint32_t*)((uintptr_t)NVIC_BASE + 0x280U));
 800032e:	4b26      	ldr	r3, [pc, #152]	@ (80003c8 <jump_to_app+0xa4>)
 8000330:	617b      	str	r3, [r7, #20]

    uint32_t msp   = *(volatile uint32_t*)(APP_BASE + 0U);
 8000332:	4b26      	ldr	r3, [pc, #152]	@ (80003cc <jump_to_app+0xa8>)
 8000334:	681b      	ldr	r3, [r3, #0]
 8000336:	613b      	str	r3, [r7, #16]
    uint32_t reset = *(volatile uint32_t*)(APP_BASE + 4U);
 8000338:	4b25      	ldr	r3, [pc, #148]	@ (80003d0 <jump_to_app+0xac>)
 800033a:	681b      	ldr	r3, [r3, #0]
 800033c:	60fb      	str	r3, [r7, #12]
    void (*app_entry)(void) = (void(*)(void))reset;
 800033e:	68fb      	ldr	r3, [r7, #12]
 8000340:	60bb      	str	r3, [r7, #8]
  \details Disables IRQ interrupts by setting special-purpose register PRIMASK.
           Can only be executed in Privileged modes.
 */
__STATIC_FORCEINLINE void __disable_irq(void)
{
  __ASM volatile ("cpsid i" : : : "memory");
 8000342:	b672      	cpsid	i
}
 8000344:	bf00      	nop

    __disable_irq();

    //Stop SysTick
    *STK_CTRL = 0;
 8000346:	4b23      	ldr	r3, [pc, #140]	@ (80003d4 <jump_to_app+0xb0>)
 8000348:	2200      	movs	r2, #0
 800034a:	601a      	str	r2, [r3, #0]
    *STK_LOAD = 0;
 800034c:	4b22      	ldr	r3, [pc, #136]	@ (80003d8 <jump_to_app+0xb4>)
 800034e:	2200      	movs	r2, #0
 8000350:	601a      	str	r2, [r3, #0]
    *STK_VAL  = 0;
 8000352:	4b22      	ldr	r3, [pc, #136]	@ (80003dc <jump_to_app+0xb8>)
 8000354:	2200      	movs	r2, #0
 8000356:	601a      	str	r2, [r3, #0]

    // NVIC: enable/pend
    for (int i = 0; i < 8; i++) {
 8000358:	2300      	movs	r3, #0
 800035a:	61fb      	str	r3, [r7, #28]
 800035c:	e010      	b.n	8000380 <jump_to_app+0x5c>
        *(NVIC_ICER + i) = 0xFFFFFFFFU;
 800035e:	69fb      	ldr	r3, [r7, #28]
 8000360:	009b      	lsls	r3, r3, #2
 8000362:	69ba      	ldr	r2, [r7, #24]
 8000364:	4413      	add	r3, r2
 8000366:	f04f 32ff 	mov.w	r2, #4294967295
 800036a:	601a      	str	r2, [r3, #0]
        *(NVIC_ICPR + i) = 0xFFFFFFFFU;
 800036c:	69fb      	ldr	r3, [r7, #28]
 800036e:	009b      	lsls	r3, r3, #2
 8000370:	697a      	ldr	r2, [r7, #20]
 8000372:	4413      	add	r3, r2
 8000374:	f04f 32ff 	mov.w	r2, #4294967295
 8000378:	601a      	str	r2, [r3, #0]
    for (int i = 0; i < 8; i++) {
 800037a:	69fb      	ldr	r3, [r7, #28]
 800037c:	3301      	adds	r3, #1
 800037e:	61fb      	str	r3, [r7, #28]
 8000380:	69fb      	ldr	r3, [r7, #28]
 8000382:	2b07      	cmp	r3, #7
 8000384:	ddeb      	ble.n	800035e <jump_to_app+0x3a>
  __ASM volatile ("dsb 0xF":::"memory");
 8000386:	f3bf 8f4f 	dsb	sy
}
 800038a:	bf00      	nop
  __ASM volatile ("isb 0xF":::"memory");
 800038c:	f3bf 8f6f 	isb	sy
}
 8000390:	bf00      	nop
    }
    __DSB();
    __ISB();

    // VTOR = APP
    *SCB_VTOR = (uint32_t)APP_BASE;
 8000392:	4b13      	ldr	r3, [pc, #76]	@ (80003e0 <jump_to_app+0xbc>)
 8000394:	4a0d      	ldr	r2, [pc, #52]	@ (80003cc <jump_to_app+0xa8>)
 8000396:	601a      	str	r2, [r3, #0]
  __ASM volatile ("dsb 0xF":::"memory");
 8000398:	f3bf 8f4f 	dsb	sy
}
 800039c:	bf00      	nop
  __ASM volatile ("isb 0xF":::"memory");
 800039e:	f3bf 8f6f 	isb	sy
}
 80003a2:	bf00      	nop
 80003a4:	693b      	ldr	r3, [r7, #16]
 80003a6:	607b      	str	r3, [r7, #4]
  \details Assigns the given value to the Main Stack Pointer (MSP).
  \param [in]    topOfMainStack  Main Stack Pointer value to set
 */
__STATIC_FORCEINLINE void __set_MSP(uint32_t topOfMainStack)
{
  __ASM volatile ("MSR msp, %0" : : "r" (topOfMainStack) : );
 80003a8:	687b      	ldr	r3, [r7, #4]
 80003aa:	f383 8808 	msr	MSP, r3
}
 80003ae:	bf00      	nop
  __ASM volatile ("dsb 0xF":::"memory");
 80003b0:	f3bf 8f4f 	dsb	sy
}
 80003b4:	bf00      	nop
  __ASM volatile ("isb 0xF":::"memory");
 80003b6:	f3bf 8f6f 	isb	sy
}
 80003ba:	bf00      	nop
    __DSB();
    __ISB();

    //jump Reset_Handler

    app_entry();
 80003bc:	68bb      	ldr	r3, [r7, #8]
 80003be:	4798      	blx	r3

    while (1) { }
 80003c0:	bf00      	nop
 80003c2:	e7fd      	b.n	80003c0 <jump_to_app+0x9c>
 80003c4:	e000e180 	.word	0xe000e180
 80003c8:	e000e280 	.word	0xe000e280
 80003cc:	08010000 	.word	0x08010000
 80003d0:	08010004 	.word	0x08010004
 80003d4:	e000e010 	.word	0xe000e010
 80003d8:	e000e014 	.word	0xe000e014
 80003dc:	e000e018 	.word	0xe000e018
 80003e0:	e000ed08 	.word	0xe000ed08

080003e4 <Reset_Handler>:

    .section  .text.Reset_Handler
  .weak  Reset_Handler
  .type  Reset_Handler, %function
Reset_Handler: 
  ldr   sp, =_estack       /* set stack pointer */
 80003e4:	f8df d034 	ldr.w	sp, [pc, #52]	@ 800041c <LoopFillZerobss+0xe>

/* Call the clock system initialization function.*/
  bl  SystemInit   
 80003e8:	f001 fa74 	bl	80018d4 <SystemInit>
 
/* Copy the data segment initializers from flash to SRAM */  
  ldr r0, =_sdata
 80003ec:	480c      	ldr	r0, [pc, #48]	@ (8000420 <LoopFillZerobss+0x12>)
  ldr r1, =_edata
 80003ee:	490d      	ldr	r1, [pc, #52]	@ (8000424 <LoopFillZerobss+0x16>)
  ldr r2, =_sidata
 80003f0:	4a0d      	ldr	r2, [pc, #52]	@ (8000428 <LoopFillZerobss+0x1a>)
  movs r3, #0
 80003f2:	2300      	movs	r3, #0
  b LoopCopyDataInit
 80003f4:	e002      	b.n	80003fc <LoopCopyDataInit>

080003f6 <CopyDataInit>:

CopyDataInit:
  ldr r4, [r2, r3]
 80003f6:	58d4      	ldr	r4, [r2, r3]
  str r4, [r0, r3]
 80003f8:	50c4      	str	r4, [r0, r3]
  adds r3, r3, #4
 80003fa:	3304      	adds	r3, #4

080003fc <LoopCopyDataInit>:

LoopCopyDataInit:
  adds r4, r0, r3
 80003fc:	18c4      	adds	r4, r0, r3
  cmp r4, r1
 80003fe:	428c      	cmp	r4, r1
  bcc CopyDataInit
 8000400:	d3f9      	bcc.n	80003f6 <CopyDataInit>
  
/* Zero fill the bss segment. */
  ldr r2, =_sbss
 8000402:	4a0a      	ldr	r2, [pc, #40]	@ (800042c <LoopFillZerobss+0x1e>)
  ldr r4, =_ebss
 8000404:	4c0a      	ldr	r4, [pc, #40]	@ (8000430 <LoopFillZerobss+0x22>)
  movs r3, #0
 8000406:	2300      	movs	r3, #0
  b LoopFillZerobss
 8000408:	e001      	b.n	800040e <LoopFillZerobss>

0800040a <FillZerobss>:

FillZerobss:
  str  r3, [r2]
 800040a:	6013      	str	r3, [r2, #0]
  adds r2, r2, #4
 800040c:	3204      	adds	r2, #4

0800040e <LoopFillZerobss>:

LoopFillZerobss:
  cmp r2, r4
 800040e:	42a2      	cmp	r2, r4
  bcc FillZerobss
 8000410:	d3fb      	bcc.n	800040a <FillZerobss>
  
/* Call static constructors */
    bl __libc_init_array
 8000412:	f001 fbfd 	bl	8001c10 <__libc_init_array>
/* Call the application's entry point.*/
  bl  main
 8000416:	f7ff ff01 	bl	800021c <main>
  bx  lr    
 800041a:	4770      	bx	lr
  ldr   sp, =_estack       /* set stack pointer */
 800041c:	2002ff00 	.word	0x2002ff00
  ldr r0, =_sdata
 8000420:	20000000 	.word	0x20000000
  ldr r1, =_edata
 8000424:	20000000 	.word	0x20000000
  ldr r2, =_sidata
 8000428:	08001db0 	.word	0x08001db0
  ldr r2, =_sbss
 800042c:	20000000 	.word	0x20000000
  ldr r4, =_ebss
 8000430:	2000002c 	.word	0x2000002c

08000434 <ADC_IRQHandler>:
 * @retval None       
*/
    .section  .text.Default_Handler,"ax",%progbits
Default_Handler:
Infinite_Loop:
  b  Infinite_Loop
 8000434:	e7fe      	b.n	8000434 <ADC_IRQHandler>
	...

08000438 <get_hclk>:
	};
static uint32_t j_hclk  = 0U;
static uint32_t j_pclk1 = 0U;
static uint32_t j_pclk2 = 0U;

uint32_t get_hclk(void){return j_hclk;}
 8000438:	b480      	push	{r7}
 800043a:	af00      	add	r7, sp, #0
 800043c:	4b03      	ldr	r3, [pc, #12]	@ (800044c <get_hclk+0x14>)
 800043e:	681b      	ldr	r3, [r3, #0]
 8000440:	4618      	mov	r0, r3
 8000442:	46bd      	mov	sp, r7
 8000444:	f85d 7b04 	ldr.w	r7, [sp], #4
 8000448:	4770      	bx	lr
 800044a:	bf00      	nop
 800044c:	2000001c 	.word	0x2000001c

08000450 <get_pclk1>:

uint32_t get_pclk1(void){return j_pclk1;}
 8000450:	b480      	push	{r7}
 8000452:	af00      	add	r7, sp, #0
 8000454:	4b03      	ldr	r3, [pc, #12]	@ (8000464 <get_pclk1+0x14>)
 8000456:	681b      	ldr	r3, [r3, #0]
 8000458:	4618      	mov	r0, r3
 800045a:	46bd      	mov	sp, r7
 800045c:	f85d 7b04 	ldr.w	r7, [sp], #4
 8000460:	4770      	bx	lr
 8000462:	bf00      	nop
 8000464:	20000020 	.word	0x20000020

08000468 <get_pclk2>:

uint32_t get_pclk2(void){return j_pclk2;}
 8000468:	b480      	push	{r7}
 800046a:	af00      	add	r7, sp, #0
 800046c:	4b03      	ldr	r3, [pc, #12]	@ (800047c <get_pclk2+0x14>)
 800046e:	681b      	ldr	r3, [r3, #0]
 8000470:	4618      	mov	r0, r3
 8000472:	46bd      	mov	sp, r7
 8000474:	f85d 7b04 	ldr.w	r7, [sp], #4
 8000478:	4770      	bx	lr
 800047a:	bf00      	nop
 800047c:	20000024 	.word	0x20000024

08000480 <wait_set>:

static int wait_set(volatile uint32_t *reg, uint32_t mask, uint32_t loop_max)
{
 8000480:	b480      	push	{r7}
 8000482:	b087      	sub	sp, #28
 8000484:	af00      	add	r7, sp, #0
 8000486:	60f8      	str	r0, [r7, #12]
 8000488:	60b9      	str	r1, [r7, #8]
 800048a:	607a      	str	r2, [r7, #4]
    for (volatile uint32_t i = 0; i < loop_max; i++) {
 800048c:	2300      	movs	r3, #0
 800048e:	617b      	str	r3, [r7, #20]
 8000490:	e00a      	b.n	80004a8 <wait_set+0x28>
        if ((*reg & mask) != 0U) return 0;
 8000492:	68fb      	ldr	r3, [r7, #12]
 8000494:	681a      	ldr	r2, [r3, #0]
 8000496:	68bb      	ldr	r3, [r7, #8]
 8000498:	4013      	ands	r3, r2
 800049a:	2b00      	cmp	r3, #0
 800049c:	d001      	beq.n	80004a2 <wait_set+0x22>
 800049e:	2300      	movs	r3, #0
 80004a0:	e008      	b.n	80004b4 <wait_set+0x34>
    for (volatile uint32_t i = 0; i < loop_max; i++) {
 80004a2:	697b      	ldr	r3, [r7, #20]
 80004a4:	3301      	adds	r3, #1
 80004a6:	617b      	str	r3, [r7, #20]
 80004a8:	697b      	ldr	r3, [r7, #20]
 80004aa:	687a      	ldr	r2, [r7, #4]
 80004ac:	429a      	cmp	r2, r3
 80004ae:	d8f0      	bhi.n	8000492 <wait_set+0x12>
    }
    return -1;
 80004b0:	f04f 33ff 	mov.w	r3, #4294967295
}
 80004b4:	4618      	mov	r0, r3
 80004b6:	371c      	adds	r7, #28
 80004b8:	46bd      	mov	sp, r7
 80004ba:	f85d 7b04 	ldr.w	r7, [sp], #4
 80004be:	4770      	bx	lr

080004c0 <wait_clear>:

static int wait_clear(volatile uint32_t *reg, uint32_t mask, uint32_t loop_max)
{
 80004c0:	b480      	push	{r7}
 80004c2:	b087      	sub	sp, #28
 80004c4:	af00      	add	r7, sp, #0
 80004c6:	60f8      	str	r0, [r7, #12]
 80004c8:	60b9      	str	r1, [r7, #8]
 80004ca:	607a      	str	r2, [r7, #4]
    for (volatile uint32_t i = 0; i < loop_max; i++) {
 80004cc:	2300      	movs	r3, #0
 80004ce:	617b      	str	r3, [r7, #20]
 80004d0:	e00a      	b.n	80004e8 <wait_clear+0x28>
        if ((*reg & mask) == 0U) return 0;
 80004d2:	68fb      	ldr	r3, [r7, #12]
 80004d4:	681a      	ldr	r2, [r3, #0]
 80004d6:	68bb      	ldr	r3, [r7, #8]
 80004d8:	4013      	ands	r3, r2
 80004da:	2b00      	cmp	r3, #0
 80004dc:	d101      	bne.n	80004e2 <wait_clear+0x22>
 80004de:	2300      	movs	r3, #0
 80004e0:	e008      	b.n	80004f4 <wait_clear+0x34>
    for (volatile uint32_t i = 0; i < loop_max; i++) {
 80004e2:	697b      	ldr	r3, [r7, #20]
 80004e4:	3301      	adds	r3, #1
 80004e6:	617b      	str	r3, [r7, #20]
 80004e8:	697b      	ldr	r3, [r7, #20]
 80004ea:	687a      	ldr	r2, [r7, #4]
 80004ec:	429a      	cmp	r2, r3
 80004ee:	d8f0      	bhi.n	80004d2 <wait_clear+0x12>
    }
    return -1;
 80004f0:	f04f 33ff 	mov.w	r3, #4294967295
}
 80004f4:	4618      	mov	r0, r3
 80004f6:	371c      	adds	r7, #28
 80004f8:	46bd      	mov	sp, r7
 80004fa:	f85d 7b04 	ldr.w	r7, [sp], #4
 80004fe:	4770      	bx	lr

08000500 <clock_update>:

int clock_update(void) {
 8000500:	b480      	push	{r7}
 8000502:	b089      	sub	sp, #36	@ 0x24
 8000504:	af00      	add	r7, sp, #0
	uint32_t num,pll_m = 0, pll_n = 0, pll_p = 0, source_clk = 0,vco=0,pll_output=0,sys_clk=0;
 8000506:	2300      	movs	r3, #0
 8000508:	61bb      	str	r3, [r7, #24]
 800050a:	2300      	movs	r3, #0
 800050c:	617b      	str	r3, [r7, #20]
 800050e:	2300      	movs	r3, #0
 8000510:	613b      	str	r3, [r7, #16]
 8000512:	2300      	movs	r3, #0
 8000514:	61fb      	str	r3, [r7, #28]
 8000516:	2300      	movs	r3, #0
 8000518:	60fb      	str	r3, [r7, #12]
 800051a:	2300      	movs	r3, #0
 800051c:	60bb      	str	r3, [r7, #8]
 800051e:	2300      	movs	r3, #0
 8000520:	607b      	str	r3, [r7, #4]
	num=(*RCC_CFGR &(3U << 2))>>2; //00:HSI 10:HSE 10:PLL
 8000522:	4b65      	ldr	r3, [pc, #404]	@ (80006b8 <clock_update+0x1b8>)
 8000524:	681b      	ldr	r3, [r3, #0]
 8000526:	089b      	lsrs	r3, r3, #2
 8000528:	f003 0303 	and.w	r3, r3, #3
 800052c:	603b      	str	r3, [r7, #0]
	switch (num) {
 800052e:	683b      	ldr	r3, [r7, #0]
 8000530:	2b02      	cmp	r3, #2
 8000532:	d062      	beq.n	80005fa <clock_update+0xfa>
 8000534:	683b      	ldr	r3, [r7, #0]
 8000536:	2b02      	cmp	r3, #2
 8000538:	f200 80b5 	bhi.w	80006a6 <clock_update+0x1a6>
 800053c:	683b      	ldr	r3, [r7, #0]
 800053e:	2b00      	cmp	r3, #0
 8000540:	d003      	beq.n	800054a <clock_update+0x4a>
 8000542:	683b      	ldr	r3, [r7, #0]
 8000544:	2b01      	cmp	r3, #1
 8000546:	d02c      	beq.n	80005a2 <clock_update+0xa2>
 8000548:	e0ad      	b.n	80006a6 <clock_update+0x1a6>
	case 0:
		sys_clk= HSI_HZ
 800054a:	4b5c      	ldr	r3, [pc, #368]	@ (80006bc <clock_update+0x1bc>)
 800054c:	607b      	str	r3, [r7, #4]
		;
		j_hclk = sys_clk / ahb_tbl[(*RCC_CFGR & (0xfU << 4U)) >> 4U];
 800054e:	4b5a      	ldr	r3, [pc, #360]	@ (80006b8 <clock_update+0x1b8>)
 8000550:	681b      	ldr	r3, [r3, #0]
 8000552:	091b      	lsrs	r3, r3, #4
 8000554:	f003 030f 	and.w	r3, r3, #15
 8000558:	4a59      	ldr	r2, [pc, #356]	@ (80006c0 <clock_update+0x1c0>)
 800055a:	f832 3013 	ldrh.w	r3, [r2, r3, lsl #1]
 800055e:	461a      	mov	r2, r3
 8000560:	687b      	ldr	r3, [r7, #4]
 8000562:	fbb3 f3f2 	udiv	r3, r3, r2
 8000566:	4a57      	ldr	r2, [pc, #348]	@ (80006c4 <clock_update+0x1c4>)
 8000568:	6013      	str	r3, [r2, #0]

		j_pclk1 = j_hclk / apb_tbl[(*RCC_CFGR & (7U << 10U)) >> 10U];
 800056a:	4b56      	ldr	r3, [pc, #344]	@ (80006c4 <clock_update+0x1c4>)
 800056c:	681b      	ldr	r3, [r3, #0]
 800056e:	4a52      	ldr	r2, [pc, #328]	@ (80006b8 <clock_update+0x1b8>)
 8000570:	6812      	ldr	r2, [r2, #0]
 8000572:	0a92      	lsrs	r2, r2, #10
 8000574:	f002 0207 	and.w	r2, r2, #7
 8000578:	4953      	ldr	r1, [pc, #332]	@ (80006c8 <clock_update+0x1c8>)
 800057a:	5c8a      	ldrb	r2, [r1, r2]
 800057c:	fbb3 f3f2 	udiv	r3, r3, r2
 8000580:	4a52      	ldr	r2, [pc, #328]	@ (80006cc <clock_update+0x1cc>)
 8000582:	6013      	str	r3, [r2, #0]

		j_pclk2 = j_hclk / apb_tbl[(*RCC_CFGR & (7U << 13U)) >> 13U];
 8000584:	4b4f      	ldr	r3, [pc, #316]	@ (80006c4 <clock_update+0x1c4>)
 8000586:	681b      	ldr	r3, [r3, #0]
 8000588:	4a4b      	ldr	r2, [pc, #300]	@ (80006b8 <clock_update+0x1b8>)
 800058a:	6812      	ldr	r2, [r2, #0]
 800058c:	0b52      	lsrs	r2, r2, #13
 800058e:	f002 0207 	and.w	r2, r2, #7
 8000592:	494d      	ldr	r1, [pc, #308]	@ (80006c8 <clock_update+0x1c8>)
 8000594:	5c8a      	ldrb	r2, [r1, r2]
 8000596:	fbb3 f3f2 	udiv	r3, r3, r2
 800059a:	4a4d      	ldr	r2, [pc, #308]	@ (80006d0 <clock_update+0x1d0>)
 800059c:	6013      	str	r3, [r2, #0]
		return 0;
 800059e:	2300      	movs	r3, #0
 80005a0:	e083      	b.n	80006aa <clock_update+0x1aa>
	case 1:
		sys_clk = HSE_HZ
 80005a2:	4b4c      	ldr	r3, [pc, #304]	@ (80006d4 <clock_update+0x1d4>)
 80005a4:	607b      	str	r3, [r7, #4]
		;
		j_hclk = sys_clk / ahb_tbl[(*RCC_CFGR & (0xfU << 4U)) >> 4U];
 80005a6:	4b44      	ldr	r3, [pc, #272]	@ (80006b8 <clock_update+0x1b8>)
 80005a8:	681b      	ldr	r3, [r3, #0]
 80005aa:	091b      	lsrs	r3, r3, #4
 80005ac:	f003 030f 	and.w	r3, r3, #15
 80005b0:	4a43      	ldr	r2, [pc, #268]	@ (80006c0 <clock_update+0x1c0>)
 80005b2:	f832 3013 	ldrh.w	r3, [r2, r3, lsl #1]
 80005b6:	461a      	mov	r2, r3
 80005b8:	687b      	ldr	r3, [r7, #4]
 80005ba:	fbb3 f3f2 	udiv	r3, r3, r2
 80005be:	4a41      	ldr	r2, [pc, #260]	@ (80006c4 <clock_update+0x1c4>)
 80005c0:	6013      	str	r3, [r2, #0]

		j_pclk1 = j_hclk / apb_tbl[(*RCC_CFGR & (7U << 10U)) >> 10U];
 80005c2:	4b40      	ldr	r3, [pc, #256]	@ (80006c4 <clock_update+0x1c4>)
 80005c4:	681b      	ldr	r3, [r3, #0]
 80005c6:	4a3c      	ldr	r2, [pc, #240]	@ (80006b8 <clock_update+0x1b8>)
 80005c8:	6812      	ldr	r2, [r2, #0]
 80005ca:	0a92      	lsrs	r2, r2, #10
 80005cc:	f002 0207 	and.w	r2, r2, #7
 80005d0:	493d      	ldr	r1, [pc, #244]	@ (80006c8 <clock_update+0x1c8>)
 80005d2:	5c8a      	ldrb	r2, [r1, r2]
 80005d4:	fbb3 f3f2 	udiv	r3, r3, r2
 80005d8:	4a3c      	ldr	r2, [pc, #240]	@ (80006cc <clock_update+0x1cc>)
 80005da:	6013      	str	r3, [r2, #0]

		j_pclk2 = j_hclk / apb_tbl[(*RCC_CFGR & (7U << 13U)) >> 13U];
 80005dc:	4b39      	ldr	r3, [pc, #228]	@ (80006c4 <clock_update+0x1c4>)
 80005de:	681b      	ldr	r3, [r3, #0]
 80005e0:	4a35      	ldr	r2, [pc, #212]	@ (80006b8 <clock_update+0x1b8>)
 80005e2:	6812      	ldr	r2, [r2, #0]
 80005e4:	0b52      	lsrs	r2, r2, #13
 80005e6:	f002 0207 	and.w	r2, r2, #7
 80005ea:	4937      	ldr	r1, [pc, #220]	@ (80006c8 <clock_update+0x1c8>)
 80005ec:	5c8a      	ldrb	r2, [r1, r2]
 80005ee:	fbb3 f3f2 	udiv	r3, r3, r2
 80005f2:	4a37      	ldr	r2, [pc, #220]	@ (80006d0 <clock_update+0x1d0>)
 80005f4:	6013      	str	r3, [r2, #0]

		return 0;
 80005f6:	2300      	movs	r3, #0
 80005f8:	e057      	b.n	80006aa <clock_update+0x1aa>
	case 2: //PLL
		pll_m = (*RCC_PLLCFGR & 0x3fU);
 80005fa:	4b37      	ldr	r3, [pc, #220]	@ (80006d8 <clock_update+0x1d8>)
 80005fc:	681b      	ldr	r3, [r3, #0]
 80005fe:	f003 033f 	and.w	r3, r3, #63	@ 0x3f
 8000602:	61bb      	str	r3, [r7, #24]
		pll_n = (*RCC_PLLCFGR & (0x1ffU << 6U))>>6U;
 8000604:	4b34      	ldr	r3, [pc, #208]	@ (80006d8 <clock_update+0x1d8>)
 8000606:	681b      	ldr	r3, [r3, #0]
 8000608:	099b      	lsrs	r3, r3, #6
 800060a:	f3c3 0308 	ubfx	r3, r3, #0, #9
 800060e:	617b      	str	r3, [r7, #20]
		pll_p = pllp_tbl[(*RCC_PLLCFGR & (0x3U << 16U))>>16U];
 8000610:	4b31      	ldr	r3, [pc, #196]	@ (80006d8 <clock_update+0x1d8>)
 8000612:	681b      	ldr	r3, [r3, #0]
 8000614:	0c1b      	lsrs	r3, r3, #16
 8000616:	f003 0303 	and.w	r3, r3, #3
 800061a:	4a30      	ldr	r2, [pc, #192]	@ (80006dc <clock_update+0x1dc>)
 800061c:	f832 3013 	ldrh.w	r3, [r2, r3, lsl #1]
 8000620:	613b      	str	r3, [r7, #16]
		if (*RCC_PLLCFGR & (1U << 22U)){
 8000622:	4b2d      	ldr	r3, [pc, #180]	@ (80006d8 <clock_update+0x1d8>)
 8000624:	681b      	ldr	r3, [r3, #0]
 8000626:	f403 0380 	and.w	r3, r3, #4194304	@ 0x400000
 800062a:	2b00      	cmp	r3, #0
 800062c:	d002      	beq.n	8000634 <clock_update+0x134>
			source_clk = HSE_HZ;
 800062e:	4b29      	ldr	r3, [pc, #164]	@ (80006d4 <clock_update+0x1d4>)
 8000630:	61fb      	str	r3, [r7, #28]
 8000632:	e001      	b.n	8000638 <clock_update+0x138>
		}
		else{
			source_clk = HSI_HZ;
 8000634:	4b21      	ldr	r3, [pc, #132]	@ (80006bc <clock_update+0x1bc>)
 8000636:	61fb      	str	r3, [r7, #28]
		}
		vco=source_clk*pll_n/pll_m;
 8000638:	69fb      	ldr	r3, [r7, #28]
 800063a:	697a      	ldr	r2, [r7, #20]
 800063c:	fb03 f202 	mul.w	r2, r3, r2
 8000640:	69bb      	ldr	r3, [r7, #24]
 8000642:	fbb2 f3f3 	udiv	r3, r2, r3
 8000646:	60fb      	str	r3, [r7, #12]
		pll_output=vco/pll_p;
 8000648:	68fa      	ldr	r2, [r7, #12]
 800064a:	693b      	ldr	r3, [r7, #16]
 800064c:	fbb2 f3f3 	udiv	r3, r2, r3
 8000650:	60bb      	str	r3, [r7, #8]

		j_hclk=pll_output/ahb_tbl[(*RCC_CFGR&(0xfU<<4U))>>4U];
 8000652:	4b19      	ldr	r3, [pc, #100]	@ (80006b8 <clock_update+0x1b8>)
 8000654:	681b      	ldr	r3, [r3, #0]
 8000656:	091b      	lsrs	r3, r3, #4
 8000658:	f003 030f 	and.w	r3, r3, #15
 800065c:	4a18      	ldr	r2, [pc, #96]	@ (80006c0 <clock_update+0x1c0>)
 800065e:	f832 3013 	ldrh.w	r3, [r2, r3, lsl #1]
 8000662:	461a      	mov	r2, r3
 8000664:	68bb      	ldr	r3, [r7, #8]
 8000666:	fbb3 f3f2 	udiv	r3, r3, r2
 800066a:	4a16      	ldr	r2, [pc, #88]	@ (80006c4 <clock_update+0x1c4>)
 800066c:	6013      	str	r3, [r2, #0]

		j_pclk1=j_hclk/apb_tbl[(*RCC_CFGR&(7U<<10U))>>10U];
 800066e:	4b15      	ldr	r3, [pc, #84]	@ (80006c4 <clock_update+0x1c4>)
 8000670:	681b      	ldr	r3, [r3, #0]
 8000672:	4a11      	ldr	r2, [pc, #68]	@ (80006b8 <clock_update+0x1b8>)
 8000674:	6812      	ldr	r2, [r2, #0]
 8000676:	0a92      	lsrs	r2, r2, #10
 8000678:	f002 0207 	and.w	r2, r2, #7
 800067c:	4912      	ldr	r1, [pc, #72]	@ (80006c8 <clock_update+0x1c8>)
 800067e:	5c8a      	ldrb	r2, [r1, r2]
 8000680:	fbb3 f3f2 	udiv	r3, r3, r2
 8000684:	4a11      	ldr	r2, [pc, #68]	@ (80006cc <clock_update+0x1cc>)
 8000686:	6013      	str	r3, [r2, #0]

		j_pclk2=j_hclk/apb_tbl[(*RCC_CFGR&(7U<<13U))>>13U];
 8000688:	4b0e      	ldr	r3, [pc, #56]	@ (80006c4 <clock_update+0x1c4>)
 800068a:	681b      	ldr	r3, [r3, #0]
 800068c:	4a0a      	ldr	r2, [pc, #40]	@ (80006b8 <clock_update+0x1b8>)
 800068e:	6812      	ldr	r2, [r2, #0]
 8000690:	0b52      	lsrs	r2, r2, #13
 8000692:	f002 0207 	and.w	r2, r2, #7
 8000696:	490c      	ldr	r1, [pc, #48]	@ (80006c8 <clock_update+0x1c8>)
 8000698:	5c8a      	ldrb	r2, [r1, r2]
 800069a:	fbb3 f3f2 	udiv	r3, r3, r2
 800069e:	4a0c      	ldr	r2, [pc, #48]	@ (80006d0 <clock_update+0x1d0>)
 80006a0:	6013      	str	r3, [r2, #0]

		return 0;
 80006a2:	2300      	movs	r3, #0
 80006a4:	e001      	b.n	80006aa <clock_update+0x1aa>
	default:
		return -1;
 80006a6:	f04f 33ff 	mov.w	r3, #4294967295
	}
}
 80006aa:	4618      	mov	r0, r3
 80006ac:	3724      	adds	r7, #36	@ 0x24
 80006ae:	46bd      	mov	sp, r7
 80006b0:	f85d 7b04 	ldr.w	r7, [sp], #4
 80006b4:	4770      	bx	lr
 80006b6:	bf00      	nop
 80006b8:	40023808 	.word	0x40023808
 80006bc:	00f42400 	.word	0x00f42400
 80006c0:	08001d80 	.word	0x08001d80
 80006c4:	2000001c 	.word	0x2000001c
 80006c8:	08001d78 	.word	0x08001d78
 80006cc:	20000020 	.word	0x20000020
 80006d0:	20000024 	.word	0x20000024
 80006d4:	007a1200 	.word	0x007a1200
 80006d8:	40023804 	.word	0x40023804
 80006dc:	08001da0 	.word	0x08001da0

080006e0 <hse_enable>:

int hse_enable(void){
 80006e0:	b580      	push	{r7, lr}
 80006e2:	af00      	add	r7, sp, #0
	*RCC_CR&=~(1U<<18U);
 80006e4:	4b0d      	ldr	r3, [pc, #52]	@ (800071c <hse_enable+0x3c>)
 80006e6:	681b      	ldr	r3, [r3, #0]
 80006e8:	4a0c      	ldr	r2, [pc, #48]	@ (800071c <hse_enable+0x3c>)
 80006ea:	f423 2380 	bic.w	r3, r3, #262144	@ 0x40000
 80006ee:	6013      	str	r3, [r2, #0]
	*RCC_CR|=(1U<<16U);
 80006f0:	4b0a      	ldr	r3, [pc, #40]	@ (800071c <hse_enable+0x3c>)
 80006f2:	681b      	ldr	r3, [r3, #0]
 80006f4:	4a09      	ldr	r2, [pc, #36]	@ (800071c <hse_enable+0x3c>)
 80006f6:	f443 3380 	orr.w	r3, r3, #65536	@ 0x10000
 80006fa:	6013      	str	r3, [r2, #0]

	if (wait_set(RCC_CR, (1U<<17U), 3000000U) < 0) return -2;
 80006fc:	4a08      	ldr	r2, [pc, #32]	@ (8000720 <hse_enable+0x40>)
 80006fe:	f44f 3100 	mov.w	r1, #131072	@ 0x20000
 8000702:	4806      	ldr	r0, [pc, #24]	@ (800071c <hse_enable+0x3c>)
 8000704:	f7ff febc 	bl	8000480 <wait_set>
 8000708:	4603      	mov	r3, r0
 800070a:	2b00      	cmp	r3, #0
 800070c:	da02      	bge.n	8000714 <hse_enable+0x34>
 800070e:	f06f 0301 	mvn.w	r3, #1
 8000712:	e000      	b.n	8000716 <hse_enable+0x36>

	return 0;
 8000714:	2300      	movs	r3, #0
}
 8000716:	4618      	mov	r0, r3
 8000718:	bd80      	pop	{r7, pc}
 800071a:	bf00      	nop
 800071c:	40023800 	.word	0x40023800
 8000720:	002dc6c0 	.word	0x002dc6c0

08000724 <clock_hse_pll_168>:
int clock_hse_pll_168(void){
 8000724:	b580      	push	{r7, lr}
 8000726:	af00      	add	r7, sp, #0
	if(hse_enable()){
 8000728:	f7ff ffda 	bl	80006e0 <hse_enable>
 800072c:	4603      	mov	r3, r0
 800072e:	2b00      	cmp	r3, #0
 8000730:	d002      	beq.n	8000738 <clock_hse_pll_168+0x14>
		return -1;
 8000732:	f04f 33ff 	mov.w	r3, #4294967295
 8000736:	e07e      	b.n	8000836 <clock_hse_pll_168+0x112>
	}
	*RCC_CR&=~(1U<<24U); //PLL OFF
 8000738:	4b40      	ldr	r3, [pc, #256]	@ (800083c <clock_hse_pll_168+0x118>)
 800073a:	681b      	ldr	r3, [r3, #0]
 800073c:	4a3f      	ldr	r2, [pc, #252]	@ (800083c <clock_hse_pll_168+0x118>)
 800073e:	f023 7380 	bic.w	r3, r3, #16777216	@ 0x1000000
 8000742:	6013      	str	r3, [r2, #0]
	if (wait_clear(RCC_CR, (1U<<25), 3000000U) < 0) return -2;
 8000744:	4a3e      	ldr	r2, [pc, #248]	@ (8000840 <clock_hse_pll_168+0x11c>)
 8000746:	f04f 7100 	mov.w	r1, #33554432	@ 0x2000000
 800074a:	483c      	ldr	r0, [pc, #240]	@ (800083c <clock_hse_pll_168+0x118>)
 800074c:	f7ff feb8 	bl	80004c0 <wait_clear>
 8000750:	4603      	mov	r3, r0
 8000752:	2b00      	cmp	r3, #0
 8000754:	da02      	bge.n	800075c <clock_hse_pll_168+0x38>
 8000756:	f06f 0301 	mvn.w	r3, #1
 800075a:	e06c      	b.n	8000836 <clock_hse_pll_168+0x112>

	*RCC_PLLCFGR|=(1U<<22U); //hse
 800075c:	4b39      	ldr	r3, [pc, #228]	@ (8000844 <clock_hse_pll_168+0x120>)
 800075e:	681b      	ldr	r3, [r3, #0]
 8000760:	4a38      	ldr	r2, [pc, #224]	@ (8000844 <clock_hse_pll_168+0x120>)
 8000762:	f443 0380 	orr.w	r3, r3, #4194304	@ 0x400000
 8000766:	6013      	str	r3, [r2, #0]

	*RCC_PLLCFGR&=~(0x3fU);
 8000768:	4b36      	ldr	r3, [pc, #216]	@ (8000844 <clock_hse_pll_168+0x120>)
 800076a:	681b      	ldr	r3, [r3, #0]
 800076c:	4a35      	ldr	r2, [pc, #212]	@ (8000844 <clock_hse_pll_168+0x120>)
 800076e:	f023 033f 	bic.w	r3, r3, #63	@ 0x3f
 8000772:	6013      	str	r3, [r2, #0]
	*RCC_PLLCFGR|=(1U<<2U); //PLLM /4
 8000774:	4b33      	ldr	r3, [pc, #204]	@ (8000844 <clock_hse_pll_168+0x120>)
 8000776:	681b      	ldr	r3, [r3, #0]
 8000778:	4a32      	ldr	r2, [pc, #200]	@ (8000844 <clock_hse_pll_168+0x120>)
 800077a:	f043 0304 	orr.w	r3, r3, #4
 800077e:	6013      	str	r3, [r2, #0]

	*RCC_PLLCFGR&=~(0x1ffU<<6U);
 8000780:	4b30      	ldr	r3, [pc, #192]	@ (8000844 <clock_hse_pll_168+0x120>)
 8000782:	681b      	ldr	r3, [r3, #0]
 8000784:	4a2f      	ldr	r2, [pc, #188]	@ (8000844 <clock_hse_pll_168+0x120>)
 8000786:	f423 43ff 	bic.w	r3, r3, #32640	@ 0x7f80
 800078a:	f023 0340 	bic.w	r3, r3, #64	@ 0x40
 800078e:	6013      	str	r3, [r2, #0]
	*RCC_PLLCFGR|=(0xa8U<<6U); //PLLN: 168
 8000790:	4b2c      	ldr	r3, [pc, #176]	@ (8000844 <clock_hse_pll_168+0x120>)
 8000792:	681b      	ldr	r3, [r3, #0]
 8000794:	4a2b      	ldr	r2, [pc, #172]	@ (8000844 <clock_hse_pll_168+0x120>)
 8000796:	f443 5328 	orr.w	r3, r3, #10752	@ 0x2a00
 800079a:	6013      	str	r3, [r2, #0]

	*RCC_PLLCFGR&=~(3U<<16U); //PLLP: /2
 800079c:	4b29      	ldr	r3, [pc, #164]	@ (8000844 <clock_hse_pll_168+0x120>)
 800079e:	681b      	ldr	r3, [r3, #0]
 80007a0:	4a28      	ldr	r2, [pc, #160]	@ (8000844 <clock_hse_pll_168+0x120>)
 80007a2:	f423 3340 	bic.w	r3, r3, #196608	@ 0x30000
 80007a6:	6013      	str	r3, [r2, #0]

	*RCC_CR|=(1U<<24U); //PLL ON
 80007a8:	4b24      	ldr	r3, [pc, #144]	@ (800083c <clock_hse_pll_168+0x118>)
 80007aa:	681b      	ldr	r3, [r3, #0]
 80007ac:	4a23      	ldr	r2, [pc, #140]	@ (800083c <clock_hse_pll_168+0x118>)
 80007ae:	f043 7380 	orr.w	r3, r3, #16777216	@ 0x1000000
 80007b2:	6013      	str	r3, [r2, #0]

	if (wait_set(RCC_CR, (1U << 25), 3000000U) < 0) return -2;
 80007b4:	4a22      	ldr	r2, [pc, #136]	@ (8000840 <clock_hse_pll_168+0x11c>)
 80007b6:	f04f 7100 	mov.w	r1, #33554432	@ 0x2000000
 80007ba:	4820      	ldr	r0, [pc, #128]	@ (800083c <clock_hse_pll_168+0x118>)
 80007bc:	f7ff fe60 	bl	8000480 <wait_set>
 80007c0:	4603      	mov	r3, r0
 80007c2:	2b00      	cmp	r3, #0
 80007c4:	da02      	bge.n	80007cc <clock_hse_pll_168+0xa8>
 80007c6:	f06f 0301 	mvn.w	r3, #1
 80007ca:	e034      	b.n	8000836 <clock_hse_pll_168+0x112>

	*FLASH_ACR &= ~0x7U;  // LATENCY[2:0] clear
 80007cc:	4b1e      	ldr	r3, [pc, #120]	@ (8000848 <clock_hse_pll_168+0x124>)
 80007ce:	681b      	ldr	r3, [r3, #0]
 80007d0:	4a1d      	ldr	r2, [pc, #116]	@ (8000848 <clock_hse_pll_168+0x124>)
 80007d2:	f023 0307 	bic.w	r3, r3, #7
 80007d6:	6013      	str	r3, [r2, #0]
	*FLASH_ACR |=  5U;    // 5 wait states
 80007d8:	4b1b      	ldr	r3, [pc, #108]	@ (8000848 <clock_hse_pll_168+0x124>)
 80007da:	681b      	ldr	r3, [r3, #0]
 80007dc:	4a1a      	ldr	r2, [pc, #104]	@ (8000848 <clock_hse_pll_168+0x124>)
 80007de:	f043 0305 	orr.w	r3, r3, #5
 80007e2:	6013      	str	r3, [r2, #0]

	*RCC_CFGR &=~((3U)|(7U<<10U)|(7U<<13U));
 80007e4:	4b19      	ldr	r3, [pc, #100]	@ (800084c <clock_hse_pll_168+0x128>)
 80007e6:	681b      	ldr	r3, [r3, #0]
 80007e8:	4a18      	ldr	r2, [pc, #96]	@ (800084c <clock_hse_pll_168+0x128>)
 80007ea:	f423 437c 	bic.w	r3, r3, #64512	@ 0xfc00
 80007ee:	f023 0303 	bic.w	r3, r3, #3
 80007f2:	6013      	str	r3, [r2, #0]
	*RCC_CFGR |=(2U)|(5U<<10U)|(4U<<13U); //set pll ,APB1:/4 APB2:/2
 80007f4:	4b15      	ldr	r3, [pc, #84]	@ (800084c <clock_hse_pll_168+0x128>)
 80007f6:	681b      	ldr	r3, [r3, #0]
 80007f8:	4a14      	ldr	r2, [pc, #80]	@ (800084c <clock_hse_pll_168+0x128>)
 80007fa:	f443 4314 	orr.w	r3, r3, #37888	@ 0x9400
 80007fe:	f043 0302 	orr.w	r3, r3, #2
 8000802:	6013      	str	r3, [r2, #0]

	if (wait_clear(RCC_CFGR, (1U << 2), 3000000U) < 0) return -2;
 8000804:	4a0e      	ldr	r2, [pc, #56]	@ (8000840 <clock_hse_pll_168+0x11c>)
 8000806:	2104      	movs	r1, #4
 8000808:	4810      	ldr	r0, [pc, #64]	@ (800084c <clock_hse_pll_168+0x128>)
 800080a:	f7ff fe59 	bl	80004c0 <wait_clear>
 800080e:	4603      	mov	r3, r0
 8000810:	2b00      	cmp	r3, #0
 8000812:	da02      	bge.n	800081a <clock_hse_pll_168+0xf6>
 8000814:	f06f 0301 	mvn.w	r3, #1
 8000818:	e00d      	b.n	8000836 <clock_hse_pll_168+0x112>
	if (wait_set(RCC_CFGR, (1U << 3), 3000000U) < 0) return -2;
 800081a:	4a09      	ldr	r2, [pc, #36]	@ (8000840 <clock_hse_pll_168+0x11c>)
 800081c:	2108      	movs	r1, #8
 800081e:	480b      	ldr	r0, [pc, #44]	@ (800084c <clock_hse_pll_168+0x128>)
 8000820:	f7ff fe2e 	bl	8000480 <wait_set>
 8000824:	4603      	mov	r3, r0
 8000826:	2b00      	cmp	r3, #0
 8000828:	da02      	bge.n	8000830 <clock_hse_pll_168+0x10c>
 800082a:	f06f 0301 	mvn.w	r3, #1
 800082e:	e002      	b.n	8000836 <clock_hse_pll_168+0x112>

	clock_update();
 8000830:	f7ff fe66 	bl	8000500 <clock_update>
	return 0;
 8000834:	2300      	movs	r3, #0

}
 8000836:	4618      	mov	r0, r3
 8000838:	bd80      	pop	{r7, pc}
 800083a:	bf00      	nop
 800083c:	40023800 	.word	0x40023800
 8000840:	002dc6c0 	.word	0x002dc6c0
 8000844:	40023804 	.word	0x40023804
 8000848:	40023c00 	.word	0x40023c00
 800084c:	40023808 	.word	0x40023808

08000850 <crashlog_valid>:
static inline int crashlog_valid(void) {
 8000850:	b480      	push	{r7}
 8000852:	af00      	add	r7, sp, #0
    return (g_crashlog.magic == CRASHLOG_MAGIC) &&
 8000854:	4b08      	ldr	r3, [pc, #32]	@ (8000878 <crashlog_valid+0x28>)
 8000856:	681b      	ldr	r3, [r3, #0]
 8000858:	4a08      	ldr	r2, [pc, #32]	@ (800087c <crashlog_valid+0x2c>)
 800085a:	4293      	cmp	r3, r2
 800085c:	d105      	bne.n	800086a <crashlog_valid+0x1a>
           (g_crashlog.ver   == CRASHLOG_VER);
 800085e:	4b06      	ldr	r3, [pc, #24]	@ (8000878 <crashlog_valid+0x28>)
 8000860:	685b      	ldr	r3, [r3, #4]
    return (g_crashlog.magic == CRASHLOG_MAGIC) &&
 8000862:	2b01      	cmp	r3, #1
 8000864:	d101      	bne.n	800086a <crashlog_valid+0x1a>
 8000866:	2301      	movs	r3, #1
 8000868:	e000      	b.n	800086c <crashlog_valid+0x1c>
 800086a:	2300      	movs	r3, #0
}
 800086c:	4618      	mov	r0, r3
 800086e:	46bd      	mov	sp, r7
 8000870:	f85d 7b04 	ldr.w	r7, [sp], #4
 8000874:	4770      	bx	lr
 8000876:	bf00      	nop
 8000878:	2002ff00 	.word	0x2002ff00
 800087c:	434c4f47 	.word	0x434c4f47

08000880 <crashlog_clear>:

static inline void crashlog_clear(void) {
 8000880:	b480      	push	{r7}
 8000882:	af00      	add	r7, sp, #0
    g_crashlog.magic = 0;
 8000884:	4b05      	ldr	r3, [pc, #20]	@ (800089c <crashlog_clear+0x1c>)
 8000886:	2200      	movs	r2, #0
 8000888:	601a      	str	r2, [r3, #0]
    g_crashlog.ver   = 0;
 800088a:	4b04      	ldr	r3, [pc, #16]	@ (800089c <crashlog_clear+0x1c>)
 800088c:	2200      	movs	r2, #0
 800088e:	605a      	str	r2, [r3, #4]
}
 8000890:	bf00      	nop
 8000892:	46bd      	mov	sp, r7
 8000894:	f85d 7b04 	ldr.w	r7, [sp], #4
 8000898:	4770      	bx	lr
 800089a:	bf00      	nop
 800089c:	2002ff00 	.word	0x2002ff00

080008a0 <eeloghdr_load>:

#define EE_HDR_ADDR     0x0000u
#define EE_REC_BASE     0x0040u

static int eeloghdr_load(eeloghdr_t* hdr)
{
 80008a0:	b580      	push	{r7, lr}
 80008a2:	b084      	sub	sp, #16
 80008a4:	af00      	add	r7, sp, #0
 80008a6:	6078      	str	r0, [r7, #4]
    int r = at24c256_read(EE_HDR_ADDR, (uint8_t*)hdr, sizeof(*hdr));
 80008a8:	2240      	movs	r2, #64	@ 0x40
 80008aa:	6879      	ldr	r1, [r7, #4]
 80008ac:	2000      	movs	r0, #0
 80008ae:	f000 ff4a 	bl	8001746 <at24c256_read>
 80008b2:	60f8      	str	r0, [r7, #12]
    if (r != 0) return r;
 80008b4:	68fb      	ldr	r3, [r7, #12]
 80008b6:	2b00      	cmp	r3, #0
 80008b8:	d001      	beq.n	80008be <eeloghdr_load+0x1e>
 80008ba:	68fb      	ldr	r3, [r7, #12]
 80008bc:	e04d      	b.n	800095a <eeloghdr_load+0xba>

    if (hdr->magic != EELOG_MAGIC || hdr->ver != EELOG_VER || hdr->rec_size != sizeof(crashlog_t)) {
 80008be:	687b      	ldr	r3, [r7, #4]
 80008c0:	681b      	ldr	r3, [r3, #0]
 80008c2:	4a28      	ldr	r2, [pc, #160]	@ (8000964 <eeloghdr_load+0xc4>)
 80008c4:	4293      	cmp	r3, r2
 80008c6:	d109      	bne.n	80008dc <eeloghdr_load+0x3c>
 80008c8:	687b      	ldr	r3, [r7, #4]
 80008ca:	889b      	ldrh	r3, [r3, #4]
 80008cc:	b29b      	uxth	r3, r3
 80008ce:	2b01      	cmp	r3, #1
 80008d0:	d104      	bne.n	80008dc <eeloghdr_load+0x3c>
 80008d2:	687b      	ldr	r3, [r7, #4]
 80008d4:	88db      	ldrh	r3, [r3, #6]
 80008d6:	b29b      	uxth	r3, r3
 80008d8:	2b40      	cmp	r3, #64	@ 0x40
 80008da:	d03d      	beq.n	8000958 <eeloghdr_load+0xb8>

        memset(hdr, 0, sizeof(*hdr));
 80008dc:	2240      	movs	r2, #64	@ 0x40
 80008de:	2100      	movs	r1, #0
 80008e0:	6878      	ldr	r0, [r7, #4]
 80008e2:	f001 f98c 	bl	8001bfe <memset>
        hdr->magic = EELOG_MAGIC;
 80008e6:	687b      	ldr	r3, [r7, #4]
 80008e8:	2200      	movs	r2, #0
 80008ea:	f042 0247 	orr.w	r2, r2, #71	@ 0x47
 80008ee:	701a      	strb	r2, [r3, #0]
 80008f0:	2200      	movs	r2, #0
 80008f2:	f042 024c 	orr.w	r2, r2, #76	@ 0x4c
 80008f6:	705a      	strb	r2, [r3, #1]
 80008f8:	2200      	movs	r2, #0
 80008fa:	f042 0245 	orr.w	r2, r2, #69	@ 0x45
 80008fe:	709a      	strb	r2, [r3, #2]
 8000900:	2200      	movs	r2, #0
 8000902:	f042 0245 	orr.w	r2, r2, #69	@ 0x45
 8000906:	70da      	strb	r2, [r3, #3]
        hdr->ver = EELOG_VER;
 8000908:	687b      	ldr	r3, [r7, #4]
 800090a:	2200      	movs	r2, #0
 800090c:	f042 0201 	orr.w	r2, r2, #1
 8000910:	711a      	strb	r2, [r3, #4]
 8000912:	2200      	movs	r2, #0
 8000914:	715a      	strb	r2, [r3, #5]
        hdr->rec_size = sizeof(crashlog_t);
 8000916:	687b      	ldr	r3, [r7, #4]
 8000918:	2200      	movs	r2, #0
 800091a:	f042 0240 	orr.w	r2, r2, #64	@ 0x40
 800091e:	719a      	strb	r2, [r3, #6]
 8000920:	2200      	movs	r2, #0
 8000922:	71da      	strb	r2, [r3, #7]
        hdr->max_records = (uint16_t)((0x7F80u - EE_REC_BASE) / sizeof(crashlog_t)); // 511
 8000924:	687b      	ldr	r3, [r7, #4]
 8000926:	2200      	movs	r2, #0
 8000928:	f062 0202 	orn	r2, r2, #2
 800092c:	721a      	strb	r2, [r3, #8]
 800092e:	2200      	movs	r2, #0
 8000930:	f042 0201 	orr.w	r2, r2, #1
 8000934:	725a      	strb	r2, [r3, #9]
        hdr->write_idx = 0;
 8000936:	687b      	ldr	r3, [r7, #4]
 8000938:	2200      	movs	r2, #0
 800093a:	729a      	strb	r2, [r3, #10]
 800093c:	2200      	movs	r2, #0
 800093e:	72da      	strb	r2, [r3, #11]
        hdr->count = 0;
 8000940:	687b      	ldr	r3, [r7, #4]
 8000942:	2200      	movs	r2, #0
 8000944:	731a      	strb	r2, [r3, #12]
 8000946:	2200      	movs	r2, #0
 8000948:	735a      	strb	r2, [r3, #13]


       at24c256_write(EE_HDR_ADDR, (const uint8_t*)hdr, sizeof(*hdr));
 800094a:	2240      	movs	r2, #64	@ 0x40
 800094c:	6879      	ldr	r1, [r7, #4]
 800094e:	2000      	movs	r0, #0
 8000950:	f000 feb8 	bl	80016c4 <at24c256_write>
        return 0;
 8000954:	2300      	movs	r3, #0
 8000956:	e000      	b.n	800095a <eeloghdr_load+0xba>
    }
    return 0;
 8000958:	2300      	movs	r3, #0
}
 800095a:	4618      	mov	r0, r3
 800095c:	3710      	adds	r7, #16
 800095e:	46bd      	mov	sp, r7
 8000960:	bd80      	pop	{r7, pc}
 8000962:	bf00      	nop
 8000964:	45454c47 	.word	0x45454c47

08000968 <eelog_rec_addr>:

static uint16_t eelog_rec_addr(const eeloghdr_t* hdr, uint16_t idx)
{
 8000968:	b480      	push	{r7}
 800096a:	b083      	sub	sp, #12
 800096c:	af00      	add	r7, sp, #0
 800096e:	6078      	str	r0, [r7, #4]
 8000970:	460b      	mov	r3, r1
 8000972:	807b      	strh	r3, [r7, #2]
    return (uint16_t)(EE_REC_BASE + (uint32_t)idx * hdr->rec_size);
 8000974:	687b      	ldr	r3, [r7, #4]
 8000976:	88db      	ldrh	r3, [r3, #6]
 8000978:	b29b      	uxth	r3, r3
 800097a:	887a      	ldrh	r2, [r7, #2]
 800097c:	fb12 f303 	smulbb	r3, r2, r3
 8000980:	b29b      	uxth	r3, r3
 8000982:	3340      	adds	r3, #64	@ 0x40
 8000984:	b29b      	uxth	r3, r3
}
 8000986:	4618      	mov	r0, r3
 8000988:	370c      	adds	r7, #12
 800098a:	46bd      	mov	sp, r7
 800098c:	f85d 7b04 	ldr.w	r7, [sp], #4
 8000990:	4770      	bx	lr

08000992 <eelog_append>:

static int eelog_append(eeloghdr_t* hdr, const crashlog_t* rec)
{
 8000992:	b580      	push	{r7, lr}
 8000994:	b094      	sub	sp, #80	@ 0x50
 8000996:	af00      	add	r7, sp, #0
 8000998:	6078      	str	r0, [r7, #4]
 800099a:	6039      	str	r1, [r7, #0]
    uint16_t addr = eelog_rec_addr(hdr, hdr->write_idx);
 800099c:	687b      	ldr	r3, [r7, #4]
 800099e:	895b      	ldrh	r3, [r3, #10]
 80009a0:	b29b      	uxth	r3, r3
 80009a2:	4619      	mov	r1, r3
 80009a4:	6878      	ldr	r0, [r7, #4]
 80009a6:	f7ff ffdf 	bl	8000968 <eelog_rec_addr>
 80009aa:	4603      	mov	r3, r0
 80009ac:	f8a7 304e 	strh.w	r3, [r7, #78]	@ 0x4e


    int r =at24c256_write(addr, (const uint8_t*)rec, sizeof(*rec));
 80009b0:	f8b7 304e 	ldrh.w	r3, [r7, #78]	@ 0x4e
 80009b4:	2240      	movs	r2, #64	@ 0x40
 80009b6:	6839      	ldr	r1, [r7, #0]
 80009b8:	4618      	mov	r0, r3
 80009ba:	f000 fe83 	bl	80016c4 <at24c256_write>
 80009be:	64b8      	str	r0, [r7, #72]	@ 0x48
    if (r != 0) return r;
 80009c0:	6cbb      	ldr	r3, [r7, #72]	@ 0x48
 80009c2:	2b00      	cmp	r3, #0
 80009c4:	d001      	beq.n	80009ca <eelog_append+0x38>
 80009c6:	6cbb      	ldr	r3, [r7, #72]	@ 0x48
 80009c8:	e03f      	b.n	8000a4a <eelog_append+0xb8>


    crashlog_t back;
    r = at24c256_read(addr, (uint8_t*)&back, sizeof(back));
 80009ca:	f107 0108 	add.w	r1, r7, #8
 80009ce:	f8b7 304e 	ldrh.w	r3, [r7, #78]	@ 0x4e
 80009d2:	2240      	movs	r2, #64	@ 0x40
 80009d4:	4618      	mov	r0, r3
 80009d6:	f000 feb6 	bl	8001746 <at24c256_read>
 80009da:	64b8      	str	r0, [r7, #72]	@ 0x48
    if (r != 0) return r;
 80009dc:	6cbb      	ldr	r3, [r7, #72]	@ 0x48
 80009de:	2b00      	cmp	r3, #0
 80009e0:	d001      	beq.n	80009e6 <eelog_append+0x54>
 80009e2:	6cbb      	ldr	r3, [r7, #72]	@ 0x48
 80009e4:	e031      	b.n	8000a4a <eelog_append+0xb8>

    if (memcmp(&back, rec, sizeof(back)) != 0) {
 80009e6:	f107 0308 	add.w	r3, r7, #8
 80009ea:	2240      	movs	r2, #64	@ 0x40
 80009ec:	6839      	ldr	r1, [r7, #0]
 80009ee:	4618      	mov	r0, r3
 80009f0:	f001 f8f5 	bl	8001bde <memcmp>
 80009f4:	4603      	mov	r3, r0
 80009f6:	2b00      	cmp	r3, #0
 80009f8:	d002      	beq.n	8000a00 <eelog_append+0x6e>
        return -3;
 80009fa:	f06f 0302 	mvn.w	r3, #2
 80009fe:	e024      	b.n	8000a4a <eelog_append+0xb8>
    }


    hdr->write_idx = (uint16_t)((hdr->write_idx + 1) % hdr->max_records);
 8000a00:	687b      	ldr	r3, [r7, #4]
 8000a02:	895b      	ldrh	r3, [r3, #10]
 8000a04:	b29b      	uxth	r3, r3
 8000a06:	3301      	adds	r3, #1
 8000a08:	687a      	ldr	r2, [r7, #4]
 8000a0a:	8912      	ldrh	r2, [r2, #8]
 8000a0c:	b292      	uxth	r2, r2
 8000a0e:	fb93 f1f2 	sdiv	r1, r3, r2
 8000a12:	fb01 f202 	mul.w	r2, r1, r2
 8000a16:	1a9b      	subs	r3, r3, r2
 8000a18:	b29a      	uxth	r2, r3
 8000a1a:	687b      	ldr	r3, [r7, #4]
 8000a1c:	815a      	strh	r2, [r3, #10]
    if (hdr->count < hdr->max_records) hdr->count++;
 8000a1e:	687b      	ldr	r3, [r7, #4]
 8000a20:	899b      	ldrh	r3, [r3, #12]
 8000a22:	b29a      	uxth	r2, r3
 8000a24:	687b      	ldr	r3, [r7, #4]
 8000a26:	891b      	ldrh	r3, [r3, #8]
 8000a28:	b29b      	uxth	r3, r3
 8000a2a:	429a      	cmp	r2, r3
 8000a2c:	d206      	bcs.n	8000a3c <eelog_append+0xaa>
 8000a2e:	687b      	ldr	r3, [r7, #4]
 8000a30:	899b      	ldrh	r3, [r3, #12]
 8000a32:	b29b      	uxth	r3, r3
 8000a34:	3301      	adds	r3, #1
 8000a36:	b29a      	uxth	r2, r3
 8000a38:	687b      	ldr	r3, [r7, #4]
 8000a3a:	819a      	strh	r2, [r3, #12]

    r =at24c256_write(EE_HDR_ADDR, (const uint8_t*)hdr, sizeof(*hdr));
 8000a3c:	2240      	movs	r2, #64	@ 0x40
 8000a3e:	6879      	ldr	r1, [r7, #4]
 8000a40:	2000      	movs	r0, #0
 8000a42:	f000 fe3f 	bl	80016c4 <at24c256_write>
 8000a46:	64b8      	str	r0, [r7, #72]	@ 0x48
    return r;
 8000a48:	6cbb      	ldr	r3, [r7, #72]	@ 0x48
}
 8000a4a:	4618      	mov	r0, r3
 8000a4c:	3750      	adds	r7, #80	@ 0x50
 8000a4e:	46bd      	mov	sp, r7
 8000a50:	bd80      	pop	{r7, pc}
	...

08000a54 <boot_eeprom>:

void boot_eeprom(void)
{
 8000a54:	b580      	push	{r7, lr}
 8000a56:	b092      	sub	sp, #72	@ 0x48
 8000a58:	af00      	add	r7, sp, #0
    if (!crashlog_valid()) return;
 8000a5a:	f7ff fef9 	bl	8000850 <crashlog_valid>
 8000a5e:	4603      	mov	r3, r0
 8000a60:	2b00      	cmp	r3, #0
 8000a62:	d027      	beq.n	8000ab4 <boot_eeprom+0x60>

    eeloghdr_t hdr;
    if (eeloghdr_load(&hdr) != 0) {
 8000a64:	1d3b      	adds	r3, r7, #4
 8000a66:	4618      	mov	r0, r3
 8000a68:	f7ff ff1a 	bl	80008a0 <eeloghdr_load>
 8000a6c:	4603      	mov	r3, r0
 8000a6e:	2b00      	cmp	r3, #0
 8000a70:	d003      	beq.n	8000a7a <boot_eeprom+0x26>
        uart_puts("EEPLOG: header load fail\n");
 8000a72:	4812      	ldr	r0, [pc, #72]	@ (8000abc <boot_eeprom+0x68>)
 8000a74:	f001 f80a 	bl	8001a8c <uart_puts>
        return;
 8000a78:	e01d      	b.n	8000ab6 <boot_eeprom+0x62>
    }

    uart_puts("EEPLOG: crashlog found, append...\n");
 8000a7a:	4811      	ldr	r0, [pc, #68]	@ (8000ac0 <boot_eeprom+0x6c>)
 8000a7c:	f001 f806 	bl	8001a8c <uart_puts>
    int r = eelog_append(&hdr, (const crashlog_t*)&g_crashlog);
 8000a80:	1d3b      	adds	r3, r7, #4
 8000a82:	4910      	ldr	r1, [pc, #64]	@ (8000ac4 <boot_eeprom+0x70>)
 8000a84:	4618      	mov	r0, r3
 8000a86:	f7ff ff84 	bl	8000992 <eelog_append>
 8000a8a:	6478      	str	r0, [r7, #68]	@ 0x44

    if (r == 0) {
 8000a8c:	6c7b      	ldr	r3, [r7, #68]	@ 0x44
 8000a8e:	2b00      	cmp	r3, #0
 8000a90:	d105      	bne.n	8000a9e <boot_eeprom+0x4a>
        uart_puts("EEPLOG: verify OK\n");
 8000a92:	480d      	ldr	r0, [pc, #52]	@ (8000ac8 <boot_eeprom+0x74>)
 8000a94:	f000 fffa 	bl	8001a8c <uart_puts>
        crashlog_clear();
 8000a98:	f7ff fef2 	bl	8000880 <crashlog_clear>
 8000a9c:	e00b      	b.n	8000ab6 <boot_eeprom+0x62>
    } else {
        uart_puts("EEPLOG: verify FAIL, r=0x");
 8000a9e:	480b      	ldr	r0, [pc, #44]	@ (8000acc <boot_eeprom+0x78>)
 8000aa0:	f000 fff4 	bl	8001a8c <uart_puts>
        uart_put_hex32((uint32_t)r);
 8000aa4:	6c7b      	ldr	r3, [r7, #68]	@ 0x44
 8000aa6:	4618      	mov	r0, r3
 8000aa8:	f001 f86f 	bl	8001b8a <uart_put_hex32>
        uart_puts("\n");
 8000aac:	4808      	ldr	r0, [pc, #32]	@ (8000ad0 <boot_eeprom+0x7c>)
 8000aae:	f000 ffed 	bl	8001a8c <uart_puts>
 8000ab2:	e000      	b.n	8000ab6 <boot_eeprom+0x62>
    if (!crashlog_valid()) return;
 8000ab4:	bf00      	nop

    }
}
 8000ab6:	3748      	adds	r7, #72	@ 0x48
 8000ab8:	46bd      	mov	sp, r7
 8000aba:	bd80      	pop	{r7, pc}
 8000abc:	08001c88 	.word	0x08001c88
 8000ac0:	08001ca4 	.word	0x08001ca4
 8000ac4:	2002ff00 	.word	0x2002ff00
 8000ac8:	08001cc8 	.word	0x08001cc8
 8000acc:	08001cdc 	.word	0x08001cdc
 8000ad0:	08001cf8 	.word	0x08001cf8

08000ad4 <boot_dump_last_crash>:

void boot_dump_last_crash(void)
{
 8000ad4:	b580      	push	{r7, lr}
 8000ad6:	b0a2      	sub	sp, #136	@ 0x88
 8000ad8:	af00      	add	r7, sp, #0
    eeloghdr_t hdr;

    uint16_t last = (uint16_t)((hdr.write_idx + hdr.max_records - 1) % hdr.max_records);
 8000ada:	f8b7 304e 	ldrh.w	r3, [r7, #78]	@ 0x4e
 8000ade:	461a      	mov	r2, r3
 8000ae0:	f8b7 304c 	ldrh.w	r3, [r7, #76]	@ 0x4c
 8000ae4:	4413      	add	r3, r2
 8000ae6:	3b01      	subs	r3, #1
 8000ae8:	f8b7 204c 	ldrh.w	r2, [r7, #76]	@ 0x4c
 8000aec:	fb93 f1f2 	sdiv	r1, r3, r2
 8000af0:	fb01 f202 	mul.w	r2, r1, r2
 8000af4:	1a9b      	subs	r3, r3, r2
 8000af6:	f8a7 3086 	strh.w	r3, [r7, #134]	@ 0x86
    uint16_t addr = eelog_rec_addr(&hdr, last);
 8000afa:	f8b7 2086 	ldrh.w	r2, [r7, #134]	@ 0x86
 8000afe:	f107 0344 	add.w	r3, r7, #68	@ 0x44
 8000b02:	4611      	mov	r1, r2
 8000b04:	4618      	mov	r0, r3
 8000b06:	f7ff ff2f 	bl	8000968 <eelog_rec_addr>
 8000b0a:	4603      	mov	r3, r0
 8000b0c:	f8a7 3084 	strh.w	r3, [r7, #132]	@ 0x84

    crashlog_t rec;
    if (at24c256_read(addr, (uint8_t*)&rec, sizeof(rec)) != 0) {
 8000b10:	1d39      	adds	r1, r7, #4
 8000b12:	f8b7 3084 	ldrh.w	r3, [r7, #132]	@ 0x84
 8000b16:	2240      	movs	r2, #64	@ 0x40
 8000b18:	4618      	mov	r0, r3
 8000b1a:	f000 fe14 	bl	8001746 <at24c256_read>
 8000b1e:	4603      	mov	r3, r0
 8000b20:	2b00      	cmp	r3, #0
 8000b22:	d003      	beq.n	8000b2c <boot_dump_last_crash+0x58>
        uart_puts("EELOG: read fail\n");
 8000b24:	4828      	ldr	r0, [pc, #160]	@ (8000bc8 <boot_dump_last_crash+0xf4>)
 8000b26:	f000 ffb1 	bl	8001a8c <uart_puts>
 8000b2a:	e049      	b.n	8000bc0 <boot_dump_last_crash+0xec>
        return;
    }

    uart_puts("=== EELOG LAST ===\n");
 8000b2c:	4827      	ldr	r0, [pc, #156]	@ (8000bcc <boot_dump_last_crash+0xf8>)
 8000b2e:	f000 ffad 	bl	8001a8c <uart_puts>
    uart_puts("idx : 0x"); uart_put_hex32(last); uart_puts("\n");
 8000b32:	4827      	ldr	r0, [pc, #156]	@ (8000bd0 <boot_dump_last_crash+0xfc>)
 8000b34:	f000 ffaa 	bl	8001a8c <uart_puts>
 8000b38:	f8b7 3086 	ldrh.w	r3, [r7, #134]	@ 0x86
 8000b3c:	4618      	mov	r0, r3
 8000b3e:	f001 f824 	bl	8001b8a <uart_put_hex32>
 8000b42:	4824      	ldr	r0, [pc, #144]	@ (8000bd4 <boot_dump_last_crash+0x100>)
 8000b44:	f000 ffa2 	bl	8001a8c <uart_puts>
    uart_puts("VTOR: 0x"); uart_put_hex32(rec.vtor); uart_puts("\n");
 8000b48:	4823      	ldr	r0, [pc, #140]	@ (8000bd8 <boot_dump_last_crash+0x104>)
 8000b4a:	f000 ff9f 	bl	8001a8c <uart_puts>
 8000b4e:	693b      	ldr	r3, [r7, #16]
 8000b50:	4618      	mov	r0, r3
 8000b52:	f001 f81a 	bl	8001b8a <uart_put_hex32>
 8000b56:	481f      	ldr	r0, [pc, #124]	@ (8000bd4 <boot_dump_last_crash+0x100>)
 8000b58:	f000 ff98 	bl	8001a8c <uart_puts>
    uart_puts("HFSR: 0x"); uart_put_hex32(rec.hfsr); uart_puts("\n");
 8000b5c:	481f      	ldr	r0, [pc, #124]	@ (8000bdc <boot_dump_last_crash+0x108>)
 8000b5e:	f000 ff95 	bl	8001a8c <uart_puts>
 8000b62:	697b      	ldr	r3, [r7, #20]
 8000b64:	4618      	mov	r0, r3
 8000b66:	f001 f810 	bl	8001b8a <uart_put_hex32>
 8000b6a:	481a      	ldr	r0, [pc, #104]	@ (8000bd4 <boot_dump_last_crash+0x100>)
 8000b6c:	f000 ff8e 	bl	8001a8c <uart_puts>
    uart_puts("CFSR: 0x"); uart_put_hex32(rec.cfsr); uart_puts("\n");
 8000b70:	481b      	ldr	r0, [pc, #108]	@ (8000be0 <boot_dump_last_crash+0x10c>)
 8000b72:	f000 ff8b 	bl	8001a8c <uart_puts>
 8000b76:	69bb      	ldr	r3, [r7, #24]
 8000b78:	4618      	mov	r0, r3
 8000b7a:	f001 f806 	bl	8001b8a <uart_put_hex32>
 8000b7e:	4815      	ldr	r0, [pc, #84]	@ (8000bd4 <boot_dump_last_crash+0x100>)
 8000b80:	f000 ff84 	bl	8001a8c <uart_puts>
    uart_puts("MMFAR:0x"); uart_put_hex32(rec.mmfar); uart_puts("\n");
 8000b84:	4817      	ldr	r0, [pc, #92]	@ (8000be4 <boot_dump_last_crash+0x110>)
 8000b86:	f000 ff81 	bl	8001a8c <uart_puts>
 8000b8a:	6a3b      	ldr	r3, [r7, #32]
 8000b8c:	4618      	mov	r0, r3
 8000b8e:	f000 fffc 	bl	8001b8a <uart_put_hex32>
 8000b92:	4810      	ldr	r0, [pc, #64]	@ (8000bd4 <boot_dump_last_crash+0x100>)
 8000b94:	f000 ff7a 	bl	8001a8c <uart_puts>
    uart_puts("BFAR: 0x"); uart_put_hex32(rec.bfar); uart_puts("\n");
 8000b98:	4813      	ldr	r0, [pc, #76]	@ (8000be8 <boot_dump_last_crash+0x114>)
 8000b9a:	f000 ff77 	bl	8001a8c <uart_puts>
 8000b9e:	6a7b      	ldr	r3, [r7, #36]	@ 0x24
 8000ba0:	4618      	mov	r0, r3
 8000ba2:	f000 fff2 	bl	8001b8a <uart_put_hex32>
 8000ba6:	480b      	ldr	r0, [pc, #44]	@ (8000bd4 <boot_dump_last_crash+0x100>)
 8000ba8:	f000 ff70 	bl	8001a8c <uart_puts>
    uart_puts("DFSR: 0x"); uart_put_hex32(rec.dfsr); uart_puts("\n");
 8000bac:	480f      	ldr	r0, [pc, #60]	@ (8000bec <boot_dump_last_crash+0x118>)
 8000bae:	f000 ff6d 	bl	8001a8c <uart_puts>
 8000bb2:	6bbb      	ldr	r3, [r7, #56]	@ 0x38
 8000bb4:	4618      	mov	r0, r3
 8000bb6:	f000 ffe8 	bl	8001b8a <uart_put_hex32>
 8000bba:	4806      	ldr	r0, [pc, #24]	@ (8000bd4 <boot_dump_last_crash+0x100>)
 8000bbc:	f000 ff66 	bl	8001a8c <uart_puts>
}
 8000bc0:	3788      	adds	r7, #136	@ 0x88
 8000bc2:	46bd      	mov	sp, r7
 8000bc4:	bd80      	pop	{r7, pc}
 8000bc6:	bf00      	nop
 8000bc8:	08001cfc 	.word	0x08001cfc
 8000bcc:	08001d10 	.word	0x08001d10
 8000bd0:	08001d24 	.word	0x08001d24
 8000bd4:	08001cf8 	.word	0x08001cf8
 8000bd8:	08001d30 	.word	0x08001d30
 8000bdc:	08001d3c 	.word	0x08001d3c
 8000be0:	08001d48 	.word	0x08001d48
 8000be4:	08001d54 	.word	0x08001d54
 8000be8:	08001d60 	.word	0x08001d60
 8000bec:	08001d6c 	.word	0x08001d6c

08000bf0 <calc_xor>:

extern int at24c256_read(uint16_t mem, uint8_t* out, uint16_t len);
extern int at24c256_write(uint16_t mem, const uint8_t* data, uint16_t len);

static uint32_t calc_xor(const eestate_t* s)
{
 8000bf0:	b480      	push	{r7}
 8000bf2:	b087      	sub	sp, #28
 8000bf4:	af00      	add	r7, sp, #0
 8000bf6:	6078      	str	r0, [r7, #4]
    const uint32_t* p = (const uint32_t*)s;
 8000bf8:	687b      	ldr	r3, [r7, #4]
 8000bfa:	60fb      	str	r3, [r7, #12]
    uint32_t x = 0;
 8000bfc:	2300      	movs	r3, #0
 8000bfe:	617b      	str	r3, [r7, #20]
    // -1 : eestate_t->check[xor]
    for (int i = 0; i < (EESTATE_SIZE/4 - 1); i++) x ^= p[i];
 8000c00:	2300      	movs	r3, #0
 8000c02:	613b      	str	r3, [r7, #16]
 8000c04:	e00a      	b.n	8000c1c <calc_xor+0x2c>
 8000c06:	693b      	ldr	r3, [r7, #16]
 8000c08:	009b      	lsls	r3, r3, #2
 8000c0a:	68fa      	ldr	r2, [r7, #12]
 8000c0c:	4413      	add	r3, r2
 8000c0e:	681b      	ldr	r3, [r3, #0]
 8000c10:	697a      	ldr	r2, [r7, #20]
 8000c12:	4053      	eors	r3, r2
 8000c14:	617b      	str	r3, [r7, #20]
 8000c16:	693b      	ldr	r3, [r7, #16]
 8000c18:	3301      	adds	r3, #1
 8000c1a:	613b      	str	r3, [r7, #16]
 8000c1c:	693b      	ldr	r3, [r7, #16]
 8000c1e:	2b0e      	cmp	r3, #14
 8000c20:	d9f1      	bls.n	8000c06 <calc_xor+0x16>
    return x;
 8000c22:	697b      	ldr	r3, [r7, #20]
}
 8000c24:	4618      	mov	r0, r3
 8000c26:	371c      	adds	r7, #28
 8000c28:	46bd      	mov	sp, r7
 8000c2a:	f85d 7b04 	ldr.w	r7, [sp], #4
 8000c2e:	4770      	bx	lr

08000c30 <is_valid>:

static int is_valid(const eestate_t* s)
{
 8000c30:	b590      	push	{r4, r7, lr}
 8000c32:	b083      	sub	sp, #12
 8000c34:	af00      	add	r7, sp, #0
 8000c36:	6078      	str	r0, [r7, #4]
    if (s->magic != EESTATE_MAGIC) return 0;
 8000c38:	687b      	ldr	r3, [r7, #4]
 8000c3a:	681b      	ldr	r3, [r3, #0]
 8000c3c:	4a10      	ldr	r2, [pc, #64]	@ (8000c80 <is_valid+0x50>)
 8000c3e:	4293      	cmp	r3, r2
 8000c40:	d001      	beq.n	8000c46 <is_valid+0x16>
 8000c42:	2300      	movs	r3, #0
 8000c44:	e018      	b.n	8000c78 <is_valid+0x48>
    if (s->ver   != EESTATE_VER)   return 0;
 8000c46:	687b      	ldr	r3, [r7, #4]
 8000c48:	889b      	ldrh	r3, [r3, #4]
 8000c4a:	b29b      	uxth	r3, r3
 8000c4c:	2b01      	cmp	r3, #1
 8000c4e:	d001      	beq.n	8000c54 <is_valid+0x24>
 8000c50:	2300      	movs	r3, #0
 8000c52:	e011      	b.n	8000c78 <is_valid+0x48>
    if (s->size  != EESTATE_SIZE)  return 0;
 8000c54:	687b      	ldr	r3, [r7, #4]
 8000c56:	88db      	ldrh	r3, [r3, #6]
 8000c58:	b29b      	uxth	r3, r3
 8000c5a:	2b40      	cmp	r3, #64	@ 0x40
 8000c5c:	d001      	beq.n	8000c62 <is_valid+0x32>
 8000c5e:	2300      	movs	r3, #0
 8000c60:	e00a      	b.n	8000c78 <is_valid+0x48>
    if (s->check != calc_xor(s))   return 0;
 8000c62:	687b      	ldr	r3, [r7, #4]
 8000c64:	6bdc      	ldr	r4, [r3, #60]	@ 0x3c
 8000c66:	6878      	ldr	r0, [r7, #4]
 8000c68:	f7ff ffc2 	bl	8000bf0 <calc_xor>
 8000c6c:	4603      	mov	r3, r0
 8000c6e:	429c      	cmp	r4, r3
 8000c70:	d001      	beq.n	8000c76 <is_valid+0x46>
 8000c72:	2300      	movs	r3, #0
 8000c74:	e000      	b.n	8000c78 <is_valid+0x48>
    return 1;
 8000c76:	2301      	movs	r3, #1
}
 8000c78:	4618      	mov	r0, r3
 8000c7a:	370c      	adds	r7, #12
 8000c7c:	46bd      	mov	sp, r7
 8000c7e:	bd90      	pop	{r4, r7, pc}
 8000c80:	45535441 	.word	0x45535441

08000c84 <set_default>:

static void set_default(eestate_t* s)
{
 8000c84:	b580      	push	{r7, lr}
 8000c86:	b082      	sub	sp, #8
 8000c88:	af00      	add	r7, sp, #0
 8000c8a:	6078      	str	r0, [r7, #4]
    memset(s, 0, sizeof(*s));
 8000c8c:	2240      	movs	r2, #64	@ 0x40
 8000c8e:	2100      	movs	r1, #0
 8000c90:	6878      	ldr	r0, [r7, #4]
 8000c92:	f000 ffb4 	bl	8001bfe <memset>
    s->magic = EESTATE_MAGIC;
 8000c96:	687b      	ldr	r3, [r7, #4]
 8000c98:	2200      	movs	r2, #0
 8000c9a:	f042 0241 	orr.w	r2, r2, #65	@ 0x41
 8000c9e:	701a      	strb	r2, [r3, #0]
 8000ca0:	2200      	movs	r2, #0
 8000ca2:	f042 0254 	orr.w	r2, r2, #84	@ 0x54
 8000ca6:	705a      	strb	r2, [r3, #1]
 8000ca8:	2200      	movs	r2, #0
 8000caa:	f042 0253 	orr.w	r2, r2, #83	@ 0x53
 8000cae:	709a      	strb	r2, [r3, #2]
 8000cb0:	2200      	movs	r2, #0
 8000cb2:	f042 0245 	orr.w	r2, r2, #69	@ 0x45
 8000cb6:	70da      	strb	r2, [r3, #3]
    s->ver   = EESTATE_VER;
 8000cb8:	687b      	ldr	r3, [r7, #4]
 8000cba:	2200      	movs	r2, #0
 8000cbc:	f042 0201 	orr.w	r2, r2, #1
 8000cc0:	711a      	strb	r2, [r3, #4]
 8000cc2:	2200      	movs	r2, #0
 8000cc4:	715a      	strb	r2, [r3, #5]
    s->size  = EESTATE_SIZE;
 8000cc6:	687b      	ldr	r3, [r7, #4]
 8000cc8:	2200      	movs	r2, #0
 8000cca:	f042 0240 	orr.w	r2, r2, #64	@ 0x40
 8000cce:	719a      	strb	r2, [r3, #6]
 8000cd0:	2200      	movs	r2, #0
 8000cd2:	71da      	strb	r2, [r3, #7]
    s->seq   = 0;
 8000cd4:	687b      	ldr	r3, [r7, #4]
 8000cd6:	2200      	movs	r2, #0
 8000cd8:	721a      	strb	r2, [r3, #8]
 8000cda:	2200      	movs	r2, #0
 8000cdc:	725a      	strb	r2, [r3, #9]
 8000cde:	2200      	movs	r2, #0
 8000ce0:	729a      	strb	r2, [r3, #10]
 8000ce2:	2200      	movs	r2, #0
 8000ce4:	72da      	strb	r2, [r3, #11]
    s->flags = 0;
 8000ce6:	687b      	ldr	r3, [r7, #4]
 8000ce8:	2200      	movs	r2, #0
 8000cea:	731a      	strb	r2, [r3, #12]
 8000cec:	2200      	movs	r2, #0
 8000cee:	735a      	strb	r2, [r3, #13]
 8000cf0:	2200      	movs	r2, #0
 8000cf2:	739a      	strb	r2, [r3, #14]
 8000cf4:	2200      	movs	r2, #0
 8000cf6:	73da      	strb	r2, [r3, #15]
    s->fail_streak = 0;
 8000cf8:	687b      	ldr	r3, [r7, #4]
 8000cfa:	2200      	movs	r2, #0
 8000cfc:	741a      	strb	r2, [r3, #16]
 8000cfe:	2200      	movs	r2, #0
 8000d00:	745a      	strb	r2, [r3, #17]
    s->threshold   = 0;
 8000d02:	687b      	ldr	r3, [r7, #4]
 8000d04:	2200      	movs	r2, #0
 8000d06:	749a      	strb	r2, [r3, #18]
 8000d08:	2200      	movs	r2, #0
 8000d0a:	74da      	strb	r2, [r3, #19]
    s->boot_count  = 0;
 8000d0c:	687b      	ldr	r3, [r7, #4]
 8000d0e:	2200      	movs	r2, #0
 8000d10:	751a      	strb	r2, [r3, #20]
 8000d12:	2200      	movs	r2, #0
 8000d14:	755a      	strb	r2, [r3, #21]
 8000d16:	2200      	movs	r2, #0
 8000d18:	759a      	strb	r2, [r3, #22]
 8000d1a:	2200      	movs	r2, #0
 8000d1c:	75da      	strb	r2, [r3, #23]
    s->last_crash_seq = 0;
 8000d1e:	687b      	ldr	r3, [r7, #4]
 8000d20:	2200      	movs	r2, #0
 8000d22:	761a      	strb	r2, [r3, #24]
 8000d24:	2200      	movs	r2, #0
 8000d26:	765a      	strb	r2, [r3, #25]
 8000d28:	2200      	movs	r2, #0
 8000d2a:	769a      	strb	r2, [r3, #26]
 8000d2c:	2200      	movs	r2, #0
 8000d2e:	76da      	strb	r2, [r3, #27]
    s->check = calc_xor(s);
 8000d30:	6878      	ldr	r0, [r7, #4]
 8000d32:	f7ff ff5d 	bl	8000bf0 <calc_xor>
 8000d36:	4602      	mov	r2, r0
 8000d38:	687b      	ldr	r3, [r7, #4]
 8000d3a:	63da      	str	r2, [r3, #60]	@ 0x3c
}
 8000d3c:	bf00      	nop
 8000d3e:	3708      	adds	r7, #8
 8000d40:	46bd      	mov	sp, r7
 8000d42:	bd80      	pop	{r7, pc}

08000d44 <eestate_load>:

int eestate_load(eestate_t* out)
{
 8000d44:	b5f0      	push	{r4, r5, r6, r7, lr}
 8000d46:	b0a7      	sub	sp, #156	@ 0x9c
 8000d48:	af00      	add	r7, sp, #0
 8000d4a:	6078      	str	r0, [r7, #4]
    eestate_t a, b;
    int ra = at24c256_read(EESTATE_SLOT0_ADDR, (uint8_t*)&a, sizeof(a));
 8000d4c:	f107 0348 	add.w	r3, r7, #72	@ 0x48
 8000d50:	2240      	movs	r2, #64	@ 0x40
 8000d52:	4619      	mov	r1, r3
 8000d54:	f44f 40ff 	mov.w	r0, #32640	@ 0x7f80
 8000d58:	f000 fcf5 	bl	8001746 <at24c256_read>
 8000d5c:	f8c7 0094 	str.w	r0, [r7, #148]	@ 0x94
    int rb = at24c256_read(EESTATE_SLOT1_ADDR, (uint8_t*)&b, sizeof(b));
 8000d60:	f107 0308 	add.w	r3, r7, #8
 8000d64:	2240      	movs	r2, #64	@ 0x40
 8000d66:	4619      	mov	r1, r3
 8000d68:	f647 70c0 	movw	r0, #32704	@ 0x7fc0
 8000d6c:	f000 fceb 	bl	8001746 <at24c256_read>
 8000d70:	f8c7 0090 	str.w	r0, [r7, #144]	@ 0x90

    int va = (ra == 0) && is_valid(&a);
 8000d74:	f8d7 3094 	ldr.w	r3, [r7, #148]	@ 0x94
 8000d78:	2b00      	cmp	r3, #0
 8000d7a:	d109      	bne.n	8000d90 <eestate_load+0x4c>
 8000d7c:	f107 0348 	add.w	r3, r7, #72	@ 0x48
 8000d80:	4618      	mov	r0, r3
 8000d82:	f7ff ff55 	bl	8000c30 <is_valid>
 8000d86:	4603      	mov	r3, r0
 8000d88:	2b00      	cmp	r3, #0
 8000d8a:	d001      	beq.n	8000d90 <eestate_load+0x4c>
 8000d8c:	2301      	movs	r3, #1
 8000d8e:	e000      	b.n	8000d92 <eestate_load+0x4e>
 8000d90:	2300      	movs	r3, #0
 8000d92:	f8c7 308c 	str.w	r3, [r7, #140]	@ 0x8c
    int vb = (rb == 0) && is_valid(&b);
 8000d96:	f8d7 3090 	ldr.w	r3, [r7, #144]	@ 0x90
 8000d9a:	2b00      	cmp	r3, #0
 8000d9c:	d109      	bne.n	8000db2 <eestate_load+0x6e>
 8000d9e:	f107 0308 	add.w	r3, r7, #8
 8000da2:	4618      	mov	r0, r3
 8000da4:	f7ff ff44 	bl	8000c30 <is_valid>
 8000da8:	4603      	mov	r3, r0
 8000daa:	2b00      	cmp	r3, #0
 8000dac:	d001      	beq.n	8000db2 <eestate_load+0x6e>
 8000dae:	2301      	movs	r3, #1
 8000db0:	e000      	b.n	8000db4 <eestate_load+0x70>
 8000db2:	2300      	movs	r3, #0
 8000db4:	f8c7 3088 	str.w	r3, [r7, #136]	@ 0x88

    if (!va && !vb) {
 8000db8:	f8d7 308c 	ldr.w	r3, [r7, #140]	@ 0x8c
 8000dbc:	2b00      	cmp	r3, #0
 8000dbe:	d108      	bne.n	8000dd2 <eestate_load+0x8e>
 8000dc0:	f8d7 3088 	ldr.w	r3, [r7, #136]	@ 0x88
 8000dc4:	2b00      	cmp	r3, #0
 8000dc6:	d104      	bne.n	8000dd2 <eestate_load+0x8e>
        set_default(out);
 8000dc8:	6878      	ldr	r0, [r7, #4]
 8000dca:	f7ff ff5b 	bl	8000c84 <set_default>
        return 0;
 8000dce:	2300      	movs	r3, #0
 8000dd0:	e061      	b.n	8000e96 <eestate_load+0x152>
    }
    if (va && !vb) { *out = a; return 0; }
 8000dd2:	f8d7 308c 	ldr.w	r3, [r7, #140]	@ 0x8c
 8000dd6:	2b00      	cmp	r3, #0
 8000dd8:	d017      	beq.n	8000e0a <eestate_load+0xc6>
 8000dda:	f8d7 3088 	ldr.w	r3, [r7, #136]	@ 0x88
 8000dde:	2b00      	cmp	r3, #0
 8000de0:	d113      	bne.n	8000e0a <eestate_load+0xc6>
 8000de2:	687b      	ldr	r3, [r7, #4]
 8000de4:	f107 0448 	add.w	r4, r7, #72	@ 0x48
 8000de8:	469c      	mov	ip, r3
 8000dea:	f104 0e40 	add.w	lr, r4, #64	@ 0x40
 8000dee:	4665      	mov	r5, ip
 8000df0:	4626      	mov	r6, r4
 8000df2:	ce0f      	ldmia	r6!, {r0, r1, r2, r3}
 8000df4:	6028      	str	r0, [r5, #0]
 8000df6:	6069      	str	r1, [r5, #4]
 8000df8:	60aa      	str	r2, [r5, #8]
 8000dfa:	60eb      	str	r3, [r5, #12]
 8000dfc:	3410      	adds	r4, #16
 8000dfe:	f10c 0c10 	add.w	ip, ip, #16
 8000e02:	4574      	cmp	r4, lr
 8000e04:	d1f3      	bne.n	8000dee <eestate_load+0xaa>
 8000e06:	2300      	movs	r3, #0
 8000e08:	e045      	b.n	8000e96 <eestate_load+0x152>
    if (!va && vb) { *out = b; return 0; }
 8000e0a:	f8d7 308c 	ldr.w	r3, [r7, #140]	@ 0x8c
 8000e0e:	2b00      	cmp	r3, #0
 8000e10:	d117      	bne.n	8000e42 <eestate_load+0xfe>
 8000e12:	f8d7 3088 	ldr.w	r3, [r7, #136]	@ 0x88
 8000e16:	2b00      	cmp	r3, #0
 8000e18:	d013      	beq.n	8000e42 <eestate_load+0xfe>
 8000e1a:	687b      	ldr	r3, [r7, #4]
 8000e1c:	f107 0408 	add.w	r4, r7, #8
 8000e20:	469c      	mov	ip, r3
 8000e22:	f104 0e40 	add.w	lr, r4, #64	@ 0x40
 8000e26:	4665      	mov	r5, ip
 8000e28:	4626      	mov	r6, r4
 8000e2a:	ce0f      	ldmia	r6!, {r0, r1, r2, r3}
 8000e2c:	6028      	str	r0, [r5, #0]
 8000e2e:	6069      	str	r1, [r5, #4]
 8000e30:	60aa      	str	r2, [r5, #8]
 8000e32:	60eb      	str	r3, [r5, #12]
 8000e34:	3410      	adds	r4, #16
 8000e36:	f10c 0c10 	add.w	ip, ip, #16
 8000e3a:	4574      	cmp	r4, lr
 8000e3c:	d1f3      	bne.n	8000e26 <eestate_load+0xe2>
 8000e3e:	2300      	movs	r3, #0
 8000e40:	e029      	b.n	8000e96 <eestate_load+0x152>

    *out = (a.seq >= b.seq) ? a : b;
 8000e42:	6d3a      	ldr	r2, [r7, #80]	@ 0x50
 8000e44:	693b      	ldr	r3, [r7, #16]
 8000e46:	429a      	cmp	r2, r3
 8000e48:	d312      	bcc.n	8000e70 <eestate_load+0x12c>
 8000e4a:	687b      	ldr	r3, [r7, #4]
 8000e4c:	f107 0448 	add.w	r4, r7, #72	@ 0x48
 8000e50:	469c      	mov	ip, r3
 8000e52:	f104 0e40 	add.w	lr, r4, #64	@ 0x40
 8000e56:	4665      	mov	r5, ip
 8000e58:	4626      	mov	r6, r4
 8000e5a:	ce0f      	ldmia	r6!, {r0, r1, r2, r3}
 8000e5c:	6028      	str	r0, [r5, #0]
 8000e5e:	6069      	str	r1, [r5, #4]
 8000e60:	60aa      	str	r2, [r5, #8]
 8000e62:	60eb      	str	r3, [r5, #12]
 8000e64:	3410      	adds	r4, #16
 8000e66:	f10c 0c10 	add.w	ip, ip, #16
 8000e6a:	4574      	cmp	r4, lr
 8000e6c:	d1f3      	bne.n	8000e56 <eestate_load+0x112>
 8000e6e:	e011      	b.n	8000e94 <eestate_load+0x150>
 8000e70:	687b      	ldr	r3, [r7, #4]
 8000e72:	f107 0408 	add.w	r4, r7, #8
 8000e76:	469c      	mov	ip, r3
 8000e78:	f104 0e40 	add.w	lr, r4, #64	@ 0x40
 8000e7c:	4665      	mov	r5, ip
 8000e7e:	4626      	mov	r6, r4
 8000e80:	ce0f      	ldmia	r6!, {r0, r1, r2, r3}
 8000e82:	6028      	str	r0, [r5, #0]
 8000e84:	6069      	str	r1, [r5, #4]
 8000e86:	60aa      	str	r2, [r5, #8]
 8000e88:	60eb      	str	r3, [r5, #12]
 8000e8a:	3410      	adds	r4, #16
 8000e8c:	f10c 0c10 	add.w	ip, ip, #16
 8000e90:	4574      	cmp	r4, lr
 8000e92:	d1f3      	bne.n	8000e7c <eestate_load+0x138>
    return 0;
 8000e94:	2300      	movs	r3, #0
}
 8000e96:	4618      	mov	r0, r3
 8000e98:	379c      	adds	r7, #156	@ 0x9c
 8000e9a:	46bd      	mov	sp, r7
 8000e9c:	bdf0      	pop	{r4, r5, r6, r7, pc}
	...

08000ea0 <eestate_store_next>:

int eestate_store_next(const eestate_t* in)
{
 8000ea0:	b5f0      	push	{r4, r5, r6, r7, lr}
 8000ea2:	b0a5      	sub	sp, #148	@ 0x94
 8000ea4:	af00      	add	r7, sp, #0
 8000ea6:	6078      	str	r0, [r7, #4]
    eestate_t now;
    eestate_load(&now);
 8000ea8:	f107 034c 	add.w	r3, r7, #76	@ 0x4c
 8000eac:	4618      	mov	r0, r3
 8000eae:	f7ff ff49 	bl	8000d44 <eestate_load>

    eestate_t next = *in;
 8000eb2:	687b      	ldr	r3, [r7, #4]
 8000eb4:	461c      	mov	r4, r3
 8000eb6:	f107 060c 	add.w	r6, r7, #12
 8000eba:	f104 0c40 	add.w	ip, r4, #64	@ 0x40
 8000ebe:	4635      	mov	r5, r6
 8000ec0:	4623      	mov	r3, r4
 8000ec2:	6818      	ldr	r0, [r3, #0]
 8000ec4:	6859      	ldr	r1, [r3, #4]
 8000ec6:	689a      	ldr	r2, [r3, #8]
 8000ec8:	68db      	ldr	r3, [r3, #12]
 8000eca:	c50f      	stmia	r5!, {r0, r1, r2, r3}
 8000ecc:	3410      	adds	r4, #16
 8000ece:	3610      	adds	r6, #16
 8000ed0:	4564      	cmp	r4, ip
 8000ed2:	d1f4      	bne.n	8000ebe <eestate_store_next+0x1e>
    next.magic = EESTATE_MAGIC;
 8000ed4:	4b14      	ldr	r3, [pc, #80]	@ (8000f28 <eestate_store_next+0x88>)
 8000ed6:	60fb      	str	r3, [r7, #12]
    next.ver   = EESTATE_VER;
 8000ed8:	2301      	movs	r3, #1
 8000eda:	823b      	strh	r3, [r7, #16]
    next.size  = EESTATE_SIZE;
 8000edc:	2340      	movs	r3, #64	@ 0x40
 8000ede:	827b      	strh	r3, [r7, #18]
    next.seq   = now.seq + 1;
 8000ee0:	6d7b      	ldr	r3, [r7, #84]	@ 0x54
 8000ee2:	3301      	adds	r3, #1
 8000ee4:	617b      	str	r3, [r7, #20]
    next.check = calc_xor(&next);
 8000ee6:	f107 030c 	add.w	r3, r7, #12
 8000eea:	4618      	mov	r0, r3
 8000eec:	f7ff fe80 	bl	8000bf0 <calc_xor>
 8000ef0:	4603      	mov	r3, r0
 8000ef2:	64bb      	str	r3, [r7, #72]	@ 0x48

    // 0,2,4... slot0, 1,3,5... slot1  )
    uint16_t addr = (next.seq & 1u) ? EESTATE_SLOT1_ADDR : EESTATE_SLOT0_ADDR;
 8000ef4:	697b      	ldr	r3, [r7, #20]
 8000ef6:	f003 0301 	and.w	r3, r3, #1
 8000efa:	2b00      	cmp	r3, #0
 8000efc:	d002      	beq.n	8000f04 <eestate_store_next+0x64>
 8000efe:	f647 73c0 	movw	r3, #32704	@ 0x7fc0
 8000f02:	e001      	b.n	8000f08 <eestate_store_next+0x68>
 8000f04:	f44f 43ff 	mov.w	r3, #32640	@ 0x7f80
 8000f08:	f8a7 308e 	strh.w	r3, [r7, #142]	@ 0x8e
    return at24c256_write(addr, (const uint8_t*)&next, sizeof(next));
 8000f0c:	f107 010c 	add.w	r1, r7, #12
 8000f10:	f8b7 308e 	ldrh.w	r3, [r7, #142]	@ 0x8e
 8000f14:	2240      	movs	r2, #64	@ 0x40
 8000f16:	4618      	mov	r0, r3
 8000f18:	f000 fbd4 	bl	80016c4 <at24c256_write>
 8000f1c:	4603      	mov	r3, r0
}
 8000f1e:	4618      	mov	r0, r3
 8000f20:	3794      	adds	r7, #148	@ 0x94
 8000f22:	46bd      	mov	sp, r7
 8000f24:	bdf0      	pop	{r4, r5, r6, r7, pc}
 8000f26:	bf00      	nop
 8000f28:	45535441 	.word	0x45535441

08000f2c <eestate_boot_step>:

int eestate_boot_step(uint16_t threshold, int crash, uint32_t crash_seq, int* out_enter_recovery)
{
 8000f2c:	b580      	push	{r7, lr}
 8000f2e:	b094      	sub	sp, #80	@ 0x50
 8000f30:	af00      	add	r7, sp, #0
 8000f32:	60b9      	str	r1, [r7, #8]
 8000f34:	607a      	str	r2, [r7, #4]
 8000f36:	603b      	str	r3, [r7, #0]
 8000f38:	4603      	mov	r3, r0
 8000f3a:	81fb      	strh	r3, [r7, #14]
    eestate_t s;
    eestate_load(&s);
 8000f3c:	f107 0310 	add.w	r3, r7, #16
 8000f40:	4618      	mov	r0, r3
 8000f42:	f7ff feff 	bl	8000d44 <eestate_load>

    // if(recovery) -> return
    if (s.flags & EESTATE_RECOVERY) {
 8000f46:	69fb      	ldr	r3, [r7, #28]
 8000f48:	f003 0302 	and.w	r3, r3, #2
 8000f4c:	2b00      	cmp	r3, #0
 8000f4e:	d007      	beq.n	8000f60 <eestate_boot_step+0x34>
        if (out_enter_recovery) *out_enter_recovery = 1;
 8000f50:	683b      	ldr	r3, [r7, #0]
 8000f52:	2b00      	cmp	r3, #0
 8000f54:	d002      	beq.n	8000f5c <eestate_boot_step+0x30>
 8000f56:	683b      	ldr	r3, [r7, #0]
 8000f58:	2201      	movs	r2, #1
 8000f5a:	601a      	str	r2, [r3, #0]
        return 0;
 8000f5c:	2300      	movs	r3, #0
 8000f5e:	e03e      	b.n	8000fde <eestate_boot_step+0xb2>
    }

    // if(pending) -> ++
    if (s.flags & EESTATE_PENDING) {
 8000f60:	69fb      	ldr	r3, [r7, #28]
 8000f62:	f003 0301 	and.w	r3, r3, #1
 8000f66:	2b00      	cmp	r3, #0
 8000f68:	d004      	beq.n	8000f74 <eestate_boot_step+0x48>
        s.fail_streak++;
 8000f6a:	8c3b      	ldrh	r3, [r7, #32]
 8000f6c:	3301      	adds	r3, #1
 8000f6e:	b29b      	uxth	r3, r3
 8000f70:	843b      	strh	r3, [r7, #32]
 8000f72:	e001      	b.n	8000f78 <eestate_boot_step+0x4c>
    } else {
        s.fail_streak = 0;
 8000f74:	2300      	movs	r3, #0
 8000f76:	843b      	strh	r3, [r7, #32]
    }

    s.boot_count++;
 8000f78:	6a7b      	ldr	r3, [r7, #36]	@ 0x24
 8000f7a:	3301      	adds	r3, #1
 8000f7c:	627b      	str	r3, [r7, #36]	@ 0x24
    s.threshold = threshold;
 8000f7e:	89fb      	ldrh	r3, [r7, #14]
 8000f80:	847b      	strh	r3, [r7, #34]	@ 0x22

    if (crash) s.last_crash_seq = crash_seq;
 8000f82:	68bb      	ldr	r3, [r7, #8]
 8000f84:	2b00      	cmp	r3, #0
 8000f86:	d001      	beq.n	8000f8c <eestate_boot_step+0x60>
 8000f88:	687b      	ldr	r3, [r7, #4]
 8000f8a:	62bb      	str	r3, [r7, #40]	@ 0x28

    // enter recovery
    if (s.fail_streak >= threshold) {
 8000f8c:	8c3b      	ldrh	r3, [r7, #32]
 8000f8e:	89fa      	ldrh	r2, [r7, #14]
 8000f90:	429a      	cmp	r2, r3
 8000f92:	d814      	bhi.n	8000fbe <eestate_boot_step+0x92>
        s.flags |= EESTATE_RECOVERY;
 8000f94:	69fb      	ldr	r3, [r7, #28]
 8000f96:	f043 0302 	orr.w	r3, r3, #2
 8000f9a:	61fb      	str	r3, [r7, #28]
        s.flags &= ~EESTATE_PENDING; // recovery에서는 pending 의미 없음
 8000f9c:	69fb      	ldr	r3, [r7, #28]
 8000f9e:	f023 0301 	bic.w	r3, r3, #1
 8000fa2:	61fb      	str	r3, [r7, #28]
        eestate_store_next(&s);
 8000fa4:	f107 0310 	add.w	r3, r7, #16
 8000fa8:	4618      	mov	r0, r3
 8000faa:	f7ff ff79 	bl	8000ea0 <eestate_store_next>
        if (out_enter_recovery) *out_enter_recovery = 1;
 8000fae:	683b      	ldr	r3, [r7, #0]
 8000fb0:	2b00      	cmp	r3, #0
 8000fb2:	d002      	beq.n	8000fba <eestate_boot_step+0x8e>
 8000fb4:	683b      	ldr	r3, [r7, #0]
 8000fb6:	2201      	movs	r2, #1
 8000fb8:	601a      	str	r2, [r3, #0]
        return 0;
 8000fba:	2300      	movs	r3, #0
 8000fbc:	e00f      	b.n	8000fde <eestate_boot_step+0xb2>
    }

    // if(!recovery) -> trial(pending=1)
    s.flags |= EESTATE_PENDING;
 8000fbe:	69fb      	ldr	r3, [r7, #28]
 8000fc0:	f043 0301 	orr.w	r3, r3, #1
 8000fc4:	61fb      	str	r3, [r7, #28]
    eestate_store_next(&s);
 8000fc6:	f107 0310 	add.w	r3, r7, #16
 8000fca:	4618      	mov	r0, r3
 8000fcc:	f7ff ff68 	bl	8000ea0 <eestate_store_next>

    if (out_enter_recovery) *out_enter_recovery = 0;
 8000fd0:	683b      	ldr	r3, [r7, #0]
 8000fd2:	2b00      	cmp	r3, #0
 8000fd4:	d002      	beq.n	8000fdc <eestate_boot_step+0xb0>
 8000fd6:	683b      	ldr	r3, [r7, #0]
 8000fd8:	2200      	movs	r2, #0
 8000fda:	601a      	str	r2, [r3, #0]
    return 0;
 8000fdc:	2300      	movs	r3, #0
}
 8000fde:	4618      	mov	r0, r3
 8000fe0:	3750      	adds	r7, #80	@ 0x50
 8000fe2:	46bd      	mov	sp, r7
 8000fe4:	bd80      	pop	{r7, pc}
	...

08000fe8 <GPIO_Enable>:

#include "f429zi_reg.h"
#include <gpio.h>


int GPIO_Enable(gpio_port_t port){
 8000fe8:	b480      	push	{r7}
 8000fea:	b083      	sub	sp, #12
 8000fec:	af00      	add	r7, sp, #0
 8000fee:	4603      	mov	r3, r0
 8000ff0:	71fb      	strb	r3, [r7, #7]
	if (port > GPIO_PORT_K) return 1;
 8000ff2:	79fb      	ldrb	r3, [r7, #7]
 8000ff4:	2b0a      	cmp	r3, #10
 8000ff6:	d901      	bls.n	8000ffc <GPIO_Enable+0x14>
 8000ff8:	2301      	movs	r3, #1
 8000ffa:	e009      	b.n	8001010 <GPIO_Enable+0x28>
	*AHB1ENR |=(1U<<port);
 8000ffc:	4b07      	ldr	r3, [pc, #28]	@ (800101c <GPIO_Enable+0x34>)
 8000ffe:	681a      	ldr	r2, [r3, #0]
 8001000:	79fb      	ldrb	r3, [r7, #7]
 8001002:	2101      	movs	r1, #1
 8001004:	fa01 f303 	lsl.w	r3, r1, r3
 8001008:	4904      	ldr	r1, [pc, #16]	@ (800101c <GPIO_Enable+0x34>)
 800100a:	4313      	orrs	r3, r2
 800100c:	600b      	str	r3, [r1, #0]
	return 0;
 800100e:	2300      	movs	r3, #0
}
 8001010:	4618      	mov	r0, r3
 8001012:	370c      	adds	r7, #12
 8001014:	46bd      	mov	sp, r7
 8001016:	f85d 7b04 	ldr.w	r7, [sp], #4
 800101a:	4770      	bx	lr
 800101c:	40023830 	.word	0x40023830

08001020 <GPIO_AF>:
	else
		*GPIOx_BSRR = (1U << (pin+16U));
	return 0;
}

int GPIO_AF(gpio_port_t port ,uint32_t pin_num,uint32_t af_num){
 8001020:	b580      	push	{r7, lr}
 8001022:	b08e      	sub	sp, #56	@ 0x38
 8001024:	af00      	add	r7, sp, #0
 8001026:	4603      	mov	r3, r0
 8001028:	60b9      	str	r1, [r7, #8]
 800102a:	607a      	str	r2, [r7, #4]
 800102c:	73fb      	strb	r3, [r7, #15]
	volatile uint32_t* GPIOx_MODER= (volatile uint32_t*)((uintptr_t)GPIO_BASE_VAL + (port * 0x400) + 0x00U);
 800102e:	7bfb      	ldrb	r3, [r7, #15]
 8001030:	029b      	lsls	r3, r3, #10
 8001032:	f103 4380 	add.w	r3, r3, #1073741824	@ 0x40000000
 8001036:	f503 3300 	add.w	r3, r3, #131072	@ 0x20000
 800103a:	637b      	str	r3, [r7, #52]	@ 0x34
	volatile uint32_t* GPIOx_AFRL= (volatile uint32_t*)((uintptr_t)GPIO_BASE_VAL + (port * 0x400) + 0x20U);
 800103c:	7bfb      	ldrb	r3, [r7, #15]
 800103e:	029b      	lsls	r3, r3, #10
 8001040:	461a      	mov	r2, r3
 8001042:	4b30      	ldr	r3, [pc, #192]	@ (8001104 <GPIO_AF+0xe4>)
 8001044:	4413      	add	r3, r2
 8001046:	633b      	str	r3, [r7, #48]	@ 0x30
	volatile uint32_t* GPIOx_AFRH= (volatile uint32_t*)((uintptr_t)GPIO_BASE_VAL + (port * 0x400) + 0x24U);
 8001048:	7bfb      	ldrb	r3, [r7, #15]
 800104a:	029b      	lsls	r3, r3, #10
 800104c:	461a      	mov	r2, r3
 800104e:	4b2e      	ldr	r3, [pc, #184]	@ (8001108 <GPIO_AF+0xe8>)
 8001050:	4413      	add	r3, r2
 8001052:	62fb      	str	r3, [r7, #44]	@ 0x2c

	uint32_t const GPIO_MOD_Mask = (2U << (2U * pin_num));
 8001054:	68bb      	ldr	r3, [r7, #8]
 8001056:	005b      	lsls	r3, r3, #1
 8001058:	2202      	movs	r2, #2
 800105a:	fa02 f303 	lsl.w	r3, r2, r3
 800105e:	62bb      	str	r3, [r7, #40]	@ 0x28
	uint32_t const GPIO_MOD_ClearMask = ~(3U << (2U * pin_num));
 8001060:	68bb      	ldr	r3, [r7, #8]
 8001062:	005b      	lsls	r3, r3, #1
 8001064:	2203      	movs	r2, #3
 8001066:	fa02 f303 	lsl.w	r3, r2, r3
 800106a:	43db      	mvns	r3, r3
 800106c:	627b      	str	r3, [r7, #36]	@ 0x24

	if(af_num>15 ||pin_num>15){
 800106e:	687b      	ldr	r3, [r7, #4]
 8001070:	2b0f      	cmp	r3, #15
 8001072:	d802      	bhi.n	800107a <GPIO_AF+0x5a>
 8001074:	68bb      	ldr	r3, [r7, #8]
 8001076:	2b0f      	cmp	r3, #15
 8001078:	d902      	bls.n	8001080 <GPIO_AF+0x60>
		return -1;
 800107a:	f04f 33ff 	mov.w	r3, #4294967295
 800107e:	e03c      	b.n	80010fa <GPIO_AF+0xda>
	}

	GPIO_Enable(port);
 8001080:	7bfb      	ldrb	r3, [r7, #15]
 8001082:	4618      	mov	r0, r3
 8001084:	f7ff ffb0 	bl	8000fe8 <GPIO_Enable>
	*GPIOx_MODER= (*GPIOx_MODER & GPIO_MOD_ClearMask) | GPIO_MOD_Mask;
 8001088:	6b7b      	ldr	r3, [r7, #52]	@ 0x34
 800108a:	681a      	ldr	r2, [r3, #0]
 800108c:	6a7b      	ldr	r3, [r7, #36]	@ 0x24
 800108e:	401a      	ands	r2, r3
 8001090:	6abb      	ldr	r3, [r7, #40]	@ 0x28
 8001092:	431a      	orrs	r2, r3
 8001094:	6b7b      	ldr	r3, [r7, #52]	@ 0x34
 8001096:	601a      	str	r2, [r3, #0]


	if (pin_num > 7) {
 8001098:	68bb      	ldr	r3, [r7, #8]
 800109a:	2b07      	cmp	r3, #7
 800109c:	d917      	bls.n	80010ce <GPIO_AF+0xae>
		uint32_t const GPIO_AFRH_Mask = (af_num << ((pin_num - 8) * 4U));
 800109e:	68bb      	ldr	r3, [r7, #8]
 80010a0:	3b08      	subs	r3, #8
 80010a2:	009b      	lsls	r3, r3, #2
 80010a4:	687a      	ldr	r2, [r7, #4]
 80010a6:	fa02 f303 	lsl.w	r3, r2, r3
 80010aa:	61bb      	str	r3, [r7, #24]
		uint32_t const GPIO_AFRH_ClearMask = ~(0xfU << ((pin_num - 8) * 4U));
 80010ac:	68bb      	ldr	r3, [r7, #8]
 80010ae:	3b08      	subs	r3, #8
 80010b0:	009b      	lsls	r3, r3, #2
 80010b2:	220f      	movs	r2, #15
 80010b4:	fa02 f303 	lsl.w	r3, r2, r3
 80010b8:	43db      	mvns	r3, r3
 80010ba:	617b      	str	r3, [r7, #20]
		*GPIOx_AFRH= (*GPIOx_AFRH & GPIO_AFRH_ClearMask) | GPIO_AFRH_Mask;
 80010bc:	6afb      	ldr	r3, [r7, #44]	@ 0x2c
 80010be:	681a      	ldr	r2, [r3, #0]
 80010c0:	697b      	ldr	r3, [r7, #20]
 80010c2:	401a      	ands	r2, r3
 80010c4:	69bb      	ldr	r3, [r7, #24]
 80010c6:	431a      	orrs	r2, r3
 80010c8:	6afb      	ldr	r3, [r7, #44]	@ 0x2c
 80010ca:	601a      	str	r2, [r3, #0]
 80010cc:	e014      	b.n	80010f8 <GPIO_AF+0xd8>
	} else {
		uint32_t const GPIO_AFRL_Mask = (af_num << (pin_num * 4U));
 80010ce:	68bb      	ldr	r3, [r7, #8]
 80010d0:	009b      	lsls	r3, r3, #2
 80010d2:	687a      	ldr	r2, [r7, #4]
 80010d4:	fa02 f303 	lsl.w	r3, r2, r3
 80010d8:	623b      	str	r3, [r7, #32]
		uint32_t const GPIO_AFRL_ClearMask = ~(0xfU << (pin_num * 4U));
 80010da:	68bb      	ldr	r3, [r7, #8]
 80010dc:	009b      	lsls	r3, r3, #2
 80010de:	220f      	movs	r2, #15
 80010e0:	fa02 f303 	lsl.w	r3, r2, r3
 80010e4:	43db      	mvns	r3, r3
 80010e6:	61fb      	str	r3, [r7, #28]
		*GPIOx_AFRL= (*GPIOx_AFRL & GPIO_AFRL_ClearMask) | GPIO_AFRL_Mask;
 80010e8:	6b3b      	ldr	r3, [r7, #48]	@ 0x30
 80010ea:	681a      	ldr	r2, [r3, #0]
 80010ec:	69fb      	ldr	r3, [r7, #28]
 80010ee:	401a      	ands	r2, r3
 80010f0:	6a3b      	ldr	r3, [r7, #32]
 80010f2:	431a      	orrs	r2, r3
 80010f4:	6b3b      	ldr	r3, [r7, #48]	@ 0x30
 80010f6:	601a      	str	r2, [r3, #0]
	}

	return 0;
 80010f8:	2300      	movs	r3, #0
}
 80010fa:	4618      	mov	r0, r3
 80010fc:	3738      	adds	r7, #56	@ 0x38
 80010fe:	46bd      	mov	sp, r7
 8001100:	bd80      	pop	{r7, pc}
 8001102:	bf00      	nop
 8001104:	40020020 	.word	0x40020020
 8001108:	40020024 	.word	0x40020024

0800110c <i2c1_init>:
• Configure the rise time register
• Program the I2C_CR1 register to enable the peripheral
• Set the START bit in the I2C_CR1 register to generate a Start condition*/

//MOD 0: Master , 1:Slave
void i2c1_init(int mod) {
 800110c:	b580      	push	{r7, lr}
 800110e:	b086      	sub	sp, #24
 8001110:	af00      	add	r7, sp, #0
 8001112:	6078      	str	r0, [r7, #4]
	*GPIOB_AFRH= (*GPIOB_AFRH & GPIO_AFRH_ClearMask) | GPIO_AFRH_Mask;

	*/

	// PB6(12~13), PB9(18~19)
	uint32_t const OSPEED_MASK = (0x3U << (12U)) | (0x3U << (18U));
 8001114:	f44f 2343 	mov.w	r3, #798720	@ 0xc3000
 8001118:	617b      	str	r3, [r7, #20]
	uint32_t const OSPEED_VERYHIGH = (0x3U << (12U)) | (0x3U << (18U));
 800111a:	f44f 2343 	mov.w	r3, #798720	@ 0xc3000
 800111e:	613b      	str	r3, [r7, #16]

	uint32_t const PUPD_MASK = (0x3U << 12U) | (0x3U << 18U);
 8001120:	f44f 2343 	mov.w	r3, #798720	@ 0xc3000
 8001124:	60fb      	str	r3, [r7, #12]
	uint32_t const PUPD_VAL = (0x1U << 12U) | (0x1U << 18U);  //Pull Up!
 8001126:	f44f 2382 	mov.w	r3, #266240	@ 0x41000
 800112a:	60bb      	str	r3, [r7, #8]

	GPIO_Enable(GPIO_PORT_B);
 800112c:	2001      	movs	r0, #1
 800112e:	f7ff ff5b 	bl	8000fe8 <GPIO_Enable>
	*APB1ENR|=(0x1U<<21U); //I2C1 Enable
 8001132:	4b33      	ldr	r3, [pc, #204]	@ (8001200 <i2c1_init+0xf4>)
 8001134:	681b      	ldr	r3, [r3, #0]
 8001136:	4a32      	ldr	r2, [pc, #200]	@ (8001200 <i2c1_init+0xf4>)
 8001138:	f443 1300 	orr.w	r3, r3, #2097152	@ 0x200000
 800113c:	6013      	str	r3, [r2, #0]

	GPIO_AF(GPIO_PORT_B,6,4);
 800113e:	2204      	movs	r2, #4
 8001140:	2106      	movs	r1, #6
 8001142:	2001      	movs	r0, #1
 8001144:	f7ff ff6c 	bl	8001020 <GPIO_AF>
	GPIO_AF(GPIO_PORT_B,9,4);
 8001148:	2204      	movs	r2, #4
 800114a:	2109      	movs	r1, #9
 800114c:	2001      	movs	r0, #1
 800114e:	f7ff ff67 	bl	8001020 <GPIO_AF>

	*GPIOB_OTYPER|=(0x1U << 6U) | (0x1U << 9U);
 8001152:	4b2c      	ldr	r3, [pc, #176]	@ (8001204 <i2c1_init+0xf8>)
 8001154:	681b      	ldr	r3, [r3, #0]
 8001156:	4a2b      	ldr	r2, [pc, #172]	@ (8001204 <i2c1_init+0xf8>)
 8001158:	f443 7310 	orr.w	r3, r3, #576	@ 0x240
 800115c:	6013      	str	r3, [r2, #0]
	*GPIOB_PUPDR = (*GPIOB_PUPDR & ~PUPD_MASK) | PUPD_VAL;
 800115e:	4b2a      	ldr	r3, [pc, #168]	@ (8001208 <i2c1_init+0xfc>)
 8001160:	681a      	ldr	r2, [r3, #0]
 8001162:	68fb      	ldr	r3, [r7, #12]
 8001164:	43db      	mvns	r3, r3
 8001166:	401a      	ands	r2, r3
 8001168:	4927      	ldr	r1, [pc, #156]	@ (8001208 <i2c1_init+0xfc>)
 800116a:	68bb      	ldr	r3, [r7, #8]
 800116c:	4313      	orrs	r3, r2
 800116e:	600b      	str	r3, [r1, #0]



	*GPIOB_OSPEEDR = (*GPIOB_OSPEEDR & ~OSPEED_MASK) | OSPEED_VERYHIGH;
 8001170:	4b26      	ldr	r3, [pc, #152]	@ (800120c <i2c1_init+0x100>)
 8001172:	681a      	ldr	r2, [r3, #0]
 8001174:	697b      	ldr	r3, [r7, #20]
 8001176:	43db      	mvns	r3, r3
 8001178:	401a      	ands	r2, r3
 800117a:	4924      	ldr	r1, [pc, #144]	@ (800120c <i2c1_init+0x100>)
 800117c:	693b      	ldr	r3, [r7, #16]
 800117e:	4313      	orrs	r3, r2
 8001180:	600b      	str	r3, [r1, #0]

	*I2C1_CR1&=~(0x1U);
 8001182:	4b23      	ldr	r3, [pc, #140]	@ (8001210 <i2c1_init+0x104>)
 8001184:	681b      	ldr	r3, [r3, #0]
 8001186:	4a22      	ldr	r2, [pc, #136]	@ (8001210 <i2c1_init+0x104>)
 8001188:	f023 0301 	bic.w	r3, r3, #1
 800118c:	6013      	str	r3, [r2, #0]

/*  *I2C1_CR2=(0x10U); ////16Mhz ,Event+ERROR interrupt OFF
	*I2C1_CCR=(0x50U);
	*I2C1_TRISE=(0x11U); */

	*I2C1_CR2   = (get_pclk1()/1000000U);
 800118e:	f7ff f95f 	bl	8000450 <get_pclk1>
 8001192:	4603      	mov	r3, r0
 8001194:	4619      	mov	r1, r3
 8001196:	4a1f      	ldr	r2, [pc, #124]	@ (8001214 <i2c1_init+0x108>)
 8001198:	4b1f      	ldr	r3, [pc, #124]	@ (8001218 <i2c1_init+0x10c>)
 800119a:	fba3 1301 	umull	r1, r3, r3, r1
 800119e:	0c9b      	lsrs	r3, r3, #18
 80011a0:	6013      	str	r3, [r2, #0]
	*I2C1_CCR   = (get_pclk1()/200000U); //Sm: CCR = fpclk1 / (2*fscl) (Thigh=Tlow=CCR*T_pclk1)
 80011a2:	f7ff f955 	bl	8000450 <get_pclk1>
 80011a6:	4603      	mov	r3, r0
 80011a8:	4a1c      	ldr	r2, [pc, #112]	@ (800121c <i2c1_init+0x110>)
 80011aa:	099b      	lsrs	r3, r3, #6
 80011ac:	491c      	ldr	r1, [pc, #112]	@ (8001220 <i2c1_init+0x114>)
 80011ae:	fba1 1303 	umull	r1, r3, r1, r3
 80011b2:	099b      	lsrs	r3, r3, #6
 80011b4:	6013      	str	r3, [r2, #0]
	*I2C1_TRISE = (get_pclk1()/1000000U)+1U;
 80011b6:	f7ff f94b 	bl	8000450 <get_pclk1>
 80011ba:	4603      	mov	r3, r0
 80011bc:	461a      	mov	r2, r3
 80011be:	4b16      	ldr	r3, [pc, #88]	@ (8001218 <i2c1_init+0x10c>)
 80011c0:	fba3 2302 	umull	r2, r3, r3, r2
 80011c4:	0c9b      	lsrs	r3, r3, #18
 80011c6:	4a17      	ldr	r2, [pc, #92]	@ (8001224 <i2c1_init+0x118>)
 80011c8:	3301      	adds	r3, #1
 80011ca:	6013      	str	r3, [r2, #0]

	if(mod){
 80011cc:	687b      	ldr	r3, [r7, #4]
 80011ce:	2b00      	cmp	r3, #0
 80011d0:	d003      	beq.n	80011da <i2c1_init+0xce>
		*I2C1_OAR1 = (1U<<14U) | (0x20<<1U); //ADDR = Ox20
 80011d2:	4b15      	ldr	r3, [pc, #84]	@ (8001228 <i2c1_init+0x11c>)
 80011d4:	f244 0240 	movw	r2, #16448	@ 0x4040
 80011d8:	601a      	str	r2, [r3, #0]

	}
	*I2C1_CR1|=(0x1U);
 80011da:	4b0d      	ldr	r3, [pc, #52]	@ (8001210 <i2c1_init+0x104>)
 80011dc:	681b      	ldr	r3, [r3, #0]
 80011de:	4a0c      	ldr	r2, [pc, #48]	@ (8001210 <i2c1_init+0x104>)
 80011e0:	f043 0301 	orr.w	r3, r3, #1
 80011e4:	6013      	str	r3, [r2, #0]
	if (mod) {
 80011e6:	687b      	ldr	r3, [r7, #4]
 80011e8:	2b00      	cmp	r3, #0
 80011ea:	d005      	beq.n	80011f8 <i2c1_init+0xec>
		*I2C1_CR1 |= (1U << 10U);
 80011ec:	4b08      	ldr	r3, [pc, #32]	@ (8001210 <i2c1_init+0x104>)
 80011ee:	681b      	ldr	r3, [r3, #0]
 80011f0:	4a07      	ldr	r2, [pc, #28]	@ (8001210 <i2c1_init+0x104>)
 80011f2:	f443 6380 	orr.w	r3, r3, #1024	@ 0x400
 80011f6:	6013      	str	r3, [r2, #0]
	}
}
 80011f8:	bf00      	nop
 80011fa:	3718      	adds	r7, #24
 80011fc:	46bd      	mov	sp, r7
 80011fe:	bd80      	pop	{r7, pc}
 8001200:	40023840 	.word	0x40023840
 8001204:	40020404 	.word	0x40020404
 8001208:	4002040c 	.word	0x4002040c
 800120c:	40020408 	.word	0x40020408
 8001210:	40005400 	.word	0x40005400
 8001214:	40005404 	.word	0x40005404
 8001218:	431bde83 	.word	0x431bde83
 800121c:	4000541c 	.word	0x4000541c
 8001220:	053e2d63 	.word	0x053e2d63
 8001224:	40005420 	.word	0x40005420
 8001228:	40005408 	.word	0x40005408

0800122c <i2c1_master_tx>:

int i2c1_master_tx(uint8_t addr_8bit ,uint8_t *data, int len){
 800122c:	b580      	push	{r7, lr}
 800122e:	b086      	sub	sp, #24
 8001230:	af00      	add	r7, sp, #0
 8001232:	4603      	mov	r3, r0
 8001234:	60b9      	str	r1, [r7, #8]
 8001236:	607a      	str	r2, [r7, #4]
 8001238:	73fb      	strb	r3, [r7, #15]

	uint32_t t0;

	*I2C1_CR1|=(0x1U << 8U); //start bit
 800123a:	4b5f      	ldr	r3, [pc, #380]	@ (80013b8 <i2c1_master_tx+0x18c>)
 800123c:	681b      	ldr	r3, [r3, #0]
 800123e:	4a5e      	ldr	r2, [pc, #376]	@ (80013b8 <i2c1_master_tx+0x18c>)
 8001240:	f443 7380 	orr.w	r3, r3, #256	@ 0x100
 8001244:	6013      	str	r3, [r2, #0]
	t0=millis();
 8001246:	f000 fb9b 	bl	8001980 <millis>
 800124a:	6138      	str	r0, [r7, #16]
	while(((*I2C1_SR1)&0x1U)!=0x1U) //EV5  RF:852p
 800124c:	e013      	b.n	8001276 <i2c1_master_tx+0x4a>
	{
	 if(i2c_SR1_ERR()) return -1;
 800124e:	f000 f9ff 	bl	8001650 <i2c_SR1_ERR>
 8001252:	4603      	mov	r3, r0
 8001254:	2b00      	cmp	r3, #0
 8001256:	d002      	beq.n	800125e <i2c1_master_tx+0x32>
 8001258:	f04f 33ff 	mov.w	r3, #4294967295
 800125c:	e0a7      	b.n	80013ae <i2c1_master_tx+0x182>
	 if ((uint32_t)(millis() - t0) > timeout_ms) return -2;
 800125e:	f000 fb8f 	bl	8001980 <millis>
 8001262:	4602      	mov	r2, r0
 8001264:	693b      	ldr	r3, [r7, #16]
 8001266:	1ad3      	subs	r3, r2, r3
 8001268:	f241 3288 	movw	r2, #5000	@ 0x1388
 800126c:	4293      	cmp	r3, r2
 800126e:	d902      	bls.n	8001276 <i2c1_master_tx+0x4a>
 8001270:	f06f 0301 	mvn.w	r3, #1
 8001274:	e09b      	b.n	80013ae <i2c1_master_tx+0x182>
	while(((*I2C1_SR1)&0x1U)!=0x1U) //EV5  RF:852p
 8001276:	4b51      	ldr	r3, [pc, #324]	@ (80013bc <i2c1_master_tx+0x190>)
 8001278:	681b      	ldr	r3, [r3, #0]
 800127a:	f003 0301 	and.w	r3, r3, #1
 800127e:	2b01      	cmp	r3, #1
 8001280:	d1e5      	bne.n	800124e <i2c1_master_tx+0x22>
	}
	(void)*I2C1_SR1; //clear RF:871p SB
 8001282:	4b4e      	ldr	r3, [pc, #312]	@ (80013bc <i2c1_master_tx+0x190>)
 8001284:	681b      	ldr	r3, [r3, #0]

	*I2C1_DR=addr_8bit;
 8001286:	4a4e      	ldr	r2, [pc, #312]	@ (80013c0 <i2c1_master_tx+0x194>)
 8001288:	7bfb      	ldrb	r3, [r7, #15]
 800128a:	6013      	str	r3, [r2, #0]

	t0 = millis();
 800128c:	f000 fb78 	bl	8001980 <millis>
 8001290:	6138      	str	r0, [r7, #16]
	while(((*I2C1_SR1)&0x2U)!=0x2U) //EV6....
 8001292:	e013      	b.n	80012bc <i2c1_master_tx+0x90>
	{
	 if(i2c_SR1_ERR()) return -1;
 8001294:	f000 f9dc 	bl	8001650 <i2c_SR1_ERR>
 8001298:	4603      	mov	r3, r0
 800129a:	2b00      	cmp	r3, #0
 800129c:	d002      	beq.n	80012a4 <i2c1_master_tx+0x78>
 800129e:	f04f 33ff 	mov.w	r3, #4294967295
 80012a2:	e084      	b.n	80013ae <i2c1_master_tx+0x182>
	 if ((uint32_t)(millis() - t0) > timeout_ms) return -2;
 80012a4:	f000 fb6c 	bl	8001980 <millis>
 80012a8:	4602      	mov	r2, r0
 80012aa:	693b      	ldr	r3, [r7, #16]
 80012ac:	1ad3      	subs	r3, r2, r3
 80012ae:	f241 3288 	movw	r2, #5000	@ 0x1388
 80012b2:	4293      	cmp	r3, r2
 80012b4:	d902      	bls.n	80012bc <i2c1_master_tx+0x90>
 80012b6:	f06f 0301 	mvn.w	r3, #1
 80012ba:	e078      	b.n	80013ae <i2c1_master_tx+0x182>
	while(((*I2C1_SR1)&0x2U)!=0x2U) //EV6....
 80012bc:	4b3f      	ldr	r3, [pc, #252]	@ (80013bc <i2c1_master_tx+0x190>)
 80012be:	681b      	ldr	r3, [r3, #0]
 80012c0:	f003 0302 	and.w	r3, r3, #2
 80012c4:	2b02      	cmp	r3, #2
 80012c6:	d1e5      	bne.n	8001294 <i2c1_master_tx+0x68>
	}
	(void)*I2C1_SR1;
 80012c8:	4b3c      	ldr	r3, [pc, #240]	@ (80013bc <i2c1_master_tx+0x190>)
 80012ca:	681b      	ldr	r3, [r3, #0]
	(void)*I2C1_SR2; //clear RF:871p ADDR
 80012cc:	4b3d      	ldr	r3, [pc, #244]	@ (80013c4 <i2c1_master_tx+0x198>)
 80012ce:	681b      	ldr	r3, [r3, #0]

	for (int i = 0; i < len; i++) {
 80012d0:	2300      	movs	r3, #0
 80012d2:	617b      	str	r3, [r7, #20]
 80012d4:	e03c      	b.n	8001350 <i2c1_master_tx+0x124>

		if (((*I2C1_SR1) & (0x1U << 10U)) == (0x1U << 10U)) { //AF(NACK)
 80012d6:	4b39      	ldr	r3, [pc, #228]	@ (80013bc <i2c1_master_tx+0x190>)
 80012d8:	681b      	ldr	r3, [r3, #0]
 80012da:	f403 6380 	and.w	r3, r3, #1024	@ 0x400
 80012de:	f5b3 6f80 	cmp.w	r3, #1024	@ 0x400
 80012e2:	d10d      	bne.n	8001300 <i2c1_master_tx+0xd4>
			*I2C1_CR1 |= (1U << 9); //STOP
 80012e4:	4b34      	ldr	r3, [pc, #208]	@ (80013b8 <i2c1_master_tx+0x18c>)
 80012e6:	681b      	ldr	r3, [r3, #0]
 80012e8:	4a33      	ldr	r2, [pc, #204]	@ (80013b8 <i2c1_master_tx+0x18c>)
 80012ea:	f443 7300 	orr.w	r3, r3, #512	@ 0x200
 80012ee:	6013      	str	r3, [r2, #0]
			*I2C1_SR1 &= ~(1U << 10); // AF clear
 80012f0:	4b32      	ldr	r3, [pc, #200]	@ (80013bc <i2c1_master_tx+0x190>)
 80012f2:	681b      	ldr	r3, [r3, #0]
 80012f4:	4a31      	ldr	r2, [pc, #196]	@ (80013bc <i2c1_master_tx+0x190>)
 80012f6:	f423 6380 	bic.w	r3, r3, #1024	@ 0x400
 80012fa:	6013      	str	r3, [r2, #0]
			return 1;
 80012fc:	2301      	movs	r3, #1
 80012fe:	e056      	b.n	80013ae <i2c1_master_tx+0x182>
		}
		t0=millis();
 8001300:	f000 fb3e 	bl	8001980 <millis>
 8001304:	6138      	str	r0, [r7, #16]
		while (((*I2C1_SR1) & (0x1U << 7U)) != (0x1U << 7U)) //EV8_1
 8001306:	e013      	b.n	8001330 <i2c1_master_tx+0x104>
		{
		 if(i2c_SR1_ERR()) return -1;
 8001308:	f000 f9a2 	bl	8001650 <i2c_SR1_ERR>
 800130c:	4603      	mov	r3, r0
 800130e:	2b00      	cmp	r3, #0
 8001310:	d002      	beq.n	8001318 <i2c1_master_tx+0xec>
 8001312:	f04f 33ff 	mov.w	r3, #4294967295
 8001316:	e04a      	b.n	80013ae <i2c1_master_tx+0x182>
		 if ((uint32_t)(millis() - t0) > timeout_ms) return -2;
 8001318:	f000 fb32 	bl	8001980 <millis>
 800131c:	4602      	mov	r2, r0
 800131e:	693b      	ldr	r3, [r7, #16]
 8001320:	1ad3      	subs	r3, r2, r3
 8001322:	f241 3288 	movw	r2, #5000	@ 0x1388
 8001326:	4293      	cmp	r3, r2
 8001328:	d902      	bls.n	8001330 <i2c1_master_tx+0x104>
 800132a:	f06f 0301 	mvn.w	r3, #1
 800132e:	e03e      	b.n	80013ae <i2c1_master_tx+0x182>
		while (((*I2C1_SR1) & (0x1U << 7U)) != (0x1U << 7U)) //EV8_1
 8001330:	4b22      	ldr	r3, [pc, #136]	@ (80013bc <i2c1_master_tx+0x190>)
 8001332:	681b      	ldr	r3, [r3, #0]
 8001334:	f003 0380 	and.w	r3, r3, #128	@ 0x80
 8001338:	2b80      	cmp	r3, #128	@ 0x80
 800133a:	d1e5      	bne.n	8001308 <i2c1_master_tx+0xdc>
		}
		*I2C1_DR = *data;
 800133c:	68bb      	ldr	r3, [r7, #8]
 800133e:	781a      	ldrb	r2, [r3, #0]
 8001340:	4b1f      	ldr	r3, [pc, #124]	@ (80013c0 <i2c1_master_tx+0x194>)
 8001342:	601a      	str	r2, [r3, #0]
		data++;
 8001344:	68bb      	ldr	r3, [r7, #8]
 8001346:	3301      	adds	r3, #1
 8001348:	60bb      	str	r3, [r7, #8]
	for (int i = 0; i < len; i++) {
 800134a:	697b      	ldr	r3, [r7, #20]
 800134c:	3301      	adds	r3, #1
 800134e:	617b      	str	r3, [r7, #20]
 8001350:	697a      	ldr	r2, [r7, #20]
 8001352:	687b      	ldr	r3, [r7, #4]
 8001354:	429a      	cmp	r2, r3
 8001356:	dbbe      	blt.n	80012d6 <i2c1_master_tx+0xaa>
	}
	t0=millis();
 8001358:	f000 fb12 	bl	8001980 <millis>
 800135c:	6138      	str	r0, [r7, #16]
	//EV8_2: TXE != 1 or BTF !=1 --> wait
	while( (((*I2C1_SR1)&(0x1U<<7U))!= (0x1U<<7U)) || (((*I2C1_SR1)&(0x1U<<2U))!= (0x1U<<2U)) )
 800135e:	e013      	b.n	8001388 <i2c1_master_tx+0x15c>
	{
	 if(i2c_SR1_ERR()) return -1;
 8001360:	f000 f976 	bl	8001650 <i2c_SR1_ERR>
 8001364:	4603      	mov	r3, r0
 8001366:	2b00      	cmp	r3, #0
 8001368:	d002      	beq.n	8001370 <i2c1_master_tx+0x144>
 800136a:	f04f 33ff 	mov.w	r3, #4294967295
 800136e:	e01e      	b.n	80013ae <i2c1_master_tx+0x182>
	 if ((uint32_t)(millis() - t0) > timeout_ms) return -2;
 8001370:	f000 fb06 	bl	8001980 <millis>
 8001374:	4602      	mov	r2, r0
 8001376:	693b      	ldr	r3, [r7, #16]
 8001378:	1ad3      	subs	r3, r2, r3
 800137a:	f241 3288 	movw	r2, #5000	@ 0x1388
 800137e:	4293      	cmp	r3, r2
 8001380:	d902      	bls.n	8001388 <i2c1_master_tx+0x15c>
 8001382:	f06f 0301 	mvn.w	r3, #1
 8001386:	e012      	b.n	80013ae <i2c1_master_tx+0x182>
	while( (((*I2C1_SR1)&(0x1U<<7U))!= (0x1U<<7U)) || (((*I2C1_SR1)&(0x1U<<2U))!= (0x1U<<2U)) )
 8001388:	4b0c      	ldr	r3, [pc, #48]	@ (80013bc <i2c1_master_tx+0x190>)
 800138a:	681b      	ldr	r3, [r3, #0]
 800138c:	f003 0380 	and.w	r3, r3, #128	@ 0x80
 8001390:	2b80      	cmp	r3, #128	@ 0x80
 8001392:	d1e5      	bne.n	8001360 <i2c1_master_tx+0x134>
 8001394:	4b09      	ldr	r3, [pc, #36]	@ (80013bc <i2c1_master_tx+0x190>)
 8001396:	681b      	ldr	r3, [r3, #0]
 8001398:	f003 0304 	and.w	r3, r3, #4
 800139c:	2b04      	cmp	r3, #4
 800139e:	d1df      	bne.n	8001360 <i2c1_master_tx+0x134>
	}
	*I2C1_CR1|=(0x1U << 9U); //stop bit
 80013a0:	4b05      	ldr	r3, [pc, #20]	@ (80013b8 <i2c1_master_tx+0x18c>)
 80013a2:	681b      	ldr	r3, [r3, #0]
 80013a4:	4a04      	ldr	r2, [pc, #16]	@ (80013b8 <i2c1_master_tx+0x18c>)
 80013a6:	f443 7300 	orr.w	r3, r3, #512	@ 0x200
 80013aa:	6013      	str	r3, [r2, #0]
	return 0;
 80013ac:	2300      	movs	r3, #0
}
 80013ae:	4618      	mov	r0, r3
 80013b0:	3718      	adds	r7, #24
 80013b2:	46bd      	mov	sp, r7
 80013b4:	bd80      	pop	{r7, pc}
 80013b6:	bf00      	nop
 80013b8:	40005400 	.word	0x40005400
 80013bc:	40005414 	.word	0x40005414
 80013c0:	40005410 	.word	0x40005410
 80013c4:	40005418 	.word	0x40005418

080013c8 <i2c1_master_rx>:

int i2c1_master_rx(uint8_t addr_8bit,uint8_t* msg,int len){
 80013c8:	b580      	push	{r7, lr}
 80013ca:	b086      	sub	sp, #24
 80013cc:	af00      	add	r7, sp, #0
 80013ce:	4603      	mov	r3, r0
 80013d0:	60b9      	str	r1, [r7, #8]
 80013d2:	607a      	str	r2, [r7, #4]
 80013d4:	73fb      	strb	r3, [r7, #15]

	uint32_t t0;

	*I2C1_CR1|=(0x1U << 10U); //SET CR1 ACK
 80013d6:	4b9a      	ldr	r3, [pc, #616]	@ (8001640 <i2c1_master_rx+0x278>)
 80013d8:	681b      	ldr	r3, [r3, #0]
 80013da:	4a99      	ldr	r2, [pc, #612]	@ (8001640 <i2c1_master_rx+0x278>)
 80013dc:	f443 6380 	orr.w	r3, r3, #1024	@ 0x400
 80013e0:	6013      	str	r3, [r2, #0]
	*I2C1_CR1|=(0x1U << 8U); //start bit
 80013e2:	4b97      	ldr	r3, [pc, #604]	@ (8001640 <i2c1_master_rx+0x278>)
 80013e4:	681b      	ldr	r3, [r3, #0]
 80013e6:	4a96      	ldr	r2, [pc, #600]	@ (8001640 <i2c1_master_rx+0x278>)
 80013e8:	f443 7380 	orr.w	r3, r3, #256	@ 0x100
 80013ec:	6013      	str	r3, [r2, #0]

	t0 = millis();
 80013ee:	f000 fac7 	bl	8001980 <millis>
 80013f2:	6178      	str	r0, [r7, #20]
	while(((*I2C1_SR1)&0x1U)!=0x1U)//EV5  RF:853p
 80013f4:	e013      	b.n	800141e <i2c1_master_rx+0x56>
	{
		 if(i2c_SR1_ERR()) return -1;
 80013f6:	f000 f92b 	bl	8001650 <i2c_SR1_ERR>
 80013fa:	4603      	mov	r3, r0
 80013fc:	2b00      	cmp	r3, #0
 80013fe:	d002      	beq.n	8001406 <i2c1_master_rx+0x3e>
 8001400:	f04f 33ff 	mov.w	r3, #4294967295
 8001404:	e117      	b.n	8001636 <i2c1_master_rx+0x26e>
		 if ((uint32_t)(millis() - t0) > timeout_ms) return -2;
 8001406:	f000 fabb 	bl	8001980 <millis>
 800140a:	4602      	mov	r2, r0
 800140c:	697b      	ldr	r3, [r7, #20]
 800140e:	1ad3      	subs	r3, r2, r3
 8001410:	f241 3288 	movw	r2, #5000	@ 0x1388
 8001414:	4293      	cmp	r3, r2
 8001416:	d902      	bls.n	800141e <i2c1_master_rx+0x56>
 8001418:	f06f 0301 	mvn.w	r3, #1
 800141c:	e10b      	b.n	8001636 <i2c1_master_rx+0x26e>
	while(((*I2C1_SR1)&0x1U)!=0x1U)//EV5  RF:853p
 800141e:	4b89      	ldr	r3, [pc, #548]	@ (8001644 <i2c1_master_rx+0x27c>)
 8001420:	681b      	ldr	r3, [r3, #0]
 8001422:	f003 0301 	and.w	r3, r3, #1
 8001426:	2b01      	cmp	r3, #1
 8001428:	d1e5      	bne.n	80013f6 <i2c1_master_rx+0x2e>
	}
	(void)*I2C1_SR1; //clear RF:871p SB
 800142a:	4b86      	ldr	r3, [pc, #536]	@ (8001644 <i2c1_master_rx+0x27c>)
 800142c:	681b      	ldr	r3, [r3, #0]
	*I2C1_DR=addr_8bit | 1U;
 800142e:	7bfb      	ldrb	r3, [r7, #15]
 8001430:	f043 0301 	orr.w	r3, r3, #1
 8001434:	b2da      	uxtb	r2, r3
 8001436:	4b84      	ldr	r3, [pc, #528]	@ (8001648 <i2c1_master_rx+0x280>)
 8001438:	601a      	str	r2, [r3, #0]

	t0 = millis();
 800143a:	f000 faa1 	bl	8001980 <millis>
 800143e:	6178      	str	r0, [r7, #20]
	while(((*I2C1_SR1)&0x2U)!=0x2U) //EV6....
 8001440:	e013      	b.n	800146a <i2c1_master_rx+0xa2>
	{
	  if(i2c_SR1_ERR()) return -1;
 8001442:	f000 f905 	bl	8001650 <i2c_SR1_ERR>
 8001446:	4603      	mov	r3, r0
 8001448:	2b00      	cmp	r3, #0
 800144a:	d002      	beq.n	8001452 <i2c1_master_rx+0x8a>
 800144c:	f04f 33ff 	mov.w	r3, #4294967295
 8001450:	e0f1      	b.n	8001636 <i2c1_master_rx+0x26e>
	  if ((uint32_t)(millis() - t0) > timeout_ms) return -2;
 8001452:	f000 fa95 	bl	8001980 <millis>
 8001456:	4602      	mov	r2, r0
 8001458:	697b      	ldr	r3, [r7, #20]
 800145a:	1ad3      	subs	r3, r2, r3
 800145c:	f241 3288 	movw	r2, #5000	@ 0x1388
 8001460:	4293      	cmp	r3, r2
 8001462:	d902      	bls.n	800146a <i2c1_master_rx+0xa2>
 8001464:	f06f 0301 	mvn.w	r3, #1
 8001468:	e0e5      	b.n	8001636 <i2c1_master_rx+0x26e>
	while(((*I2C1_SR1)&0x2U)!=0x2U) //EV6....
 800146a:	4b76      	ldr	r3, [pc, #472]	@ (8001644 <i2c1_master_rx+0x27c>)
 800146c:	681b      	ldr	r3, [r3, #0]
 800146e:	f003 0302 	and.w	r3, r3, #2
 8001472:	2b02      	cmp	r3, #2
 8001474:	d1e5      	bne.n	8001442 <i2c1_master_rx+0x7a>
	}
	switch (len) {
 8001476:	687b      	ldr	r3, [r7, #4]
 8001478:	2b02      	cmp	r3, #2
 800147a:	d147      	bne.n	800150c <i2c1_master_rx+0x144>
	case 2:
		*I2C1_CR1 &= ~(0x1U << 10U); //RESET CR1 ACK
 800147c:	4b70      	ldr	r3, [pc, #448]	@ (8001640 <i2c1_master_rx+0x278>)
 800147e:	681b      	ldr	r3, [r3, #0]
 8001480:	4a6f      	ldr	r2, [pc, #444]	@ (8001640 <i2c1_master_rx+0x278>)
 8001482:	f423 6380 	bic.w	r3, r3, #1024	@ 0x400
 8001486:	6013      	str	r3, [r2, #0]
		*I2C1_CR1 |= (0x1U << 11U); //POS HIGH
 8001488:	4b6d      	ldr	r3, [pc, #436]	@ (8001640 <i2c1_master_rx+0x278>)
 800148a:	681b      	ldr	r3, [r3, #0]
 800148c:	4a6c      	ldr	r2, [pc, #432]	@ (8001640 <i2c1_master_rx+0x278>)
 800148e:	f443 6300 	orr.w	r3, r3, #2048	@ 0x800
 8001492:	6013      	str	r3, [r2, #0]
		(void) *I2C1_SR1;
 8001494:	4b6b      	ldr	r3, [pc, #428]	@ (8001644 <i2c1_master_rx+0x27c>)
 8001496:	681b      	ldr	r3, [r3, #0]
		(void) *I2C1_SR2; //clear RF:871p ADDR
 8001498:	4b6c      	ldr	r3, [pc, #432]	@ (800164c <i2c1_master_rx+0x284>)
 800149a:	681b      	ldr	r3, [r3, #0]
		t0=millis();
 800149c:	f000 fa70 	bl	8001980 <millis>
 80014a0:	6178      	str	r0, [r7, #20]
		while (((*I2C1_SR1) & (0x1U << 2U)) == 0)
 80014a2:	e013      	b.n	80014cc <i2c1_master_rx+0x104>
		{
					 if(i2c_SR1_ERR()) return -1;
 80014a4:	f000 f8d4 	bl	8001650 <i2c_SR1_ERR>
 80014a8:	4603      	mov	r3, r0
 80014aa:	2b00      	cmp	r3, #0
 80014ac:	d002      	beq.n	80014b4 <i2c1_master_rx+0xec>
 80014ae:	f04f 33ff 	mov.w	r3, #4294967295
 80014b2:	e0c0      	b.n	8001636 <i2c1_master_rx+0x26e>
					 if ((uint32_t)(millis() - t0) > timeout_ms) return -2;
 80014b4:	f000 fa64 	bl	8001980 <millis>
 80014b8:	4602      	mov	r2, r0
 80014ba:	697b      	ldr	r3, [r7, #20]
 80014bc:	1ad3      	subs	r3, r2, r3
 80014be:	f241 3288 	movw	r2, #5000	@ 0x1388
 80014c2:	4293      	cmp	r3, r2
 80014c4:	d902      	bls.n	80014cc <i2c1_master_rx+0x104>
 80014c6:	f06f 0301 	mvn.w	r3, #1
 80014ca:	e0b4      	b.n	8001636 <i2c1_master_rx+0x26e>
		while (((*I2C1_SR1) & (0x1U << 2U)) == 0)
 80014cc:	4b5d      	ldr	r3, [pc, #372]	@ (8001644 <i2c1_master_rx+0x27c>)
 80014ce:	681b      	ldr	r3, [r3, #0]
 80014d0:	f003 0304 	and.w	r3, r3, #4
 80014d4:	2b00      	cmp	r3, #0
 80014d6:	d0e5      	beq.n	80014a4 <i2c1_master_rx+0xdc>
		}
		*I2C1_CR1 |= (0x1U << 9U); //stop bit
 80014d8:	4b59      	ldr	r3, [pc, #356]	@ (8001640 <i2c1_master_rx+0x278>)
 80014da:	681b      	ldr	r3, [r3, #0]
 80014dc:	4a58      	ldr	r2, [pc, #352]	@ (8001640 <i2c1_master_rx+0x278>)
 80014de:	f443 7300 	orr.w	r3, r3, #512	@ 0x200
 80014e2:	6013      	str	r3, [r2, #0]
		*msg = *I2C1_DR;
 80014e4:	4b58      	ldr	r3, [pc, #352]	@ (8001648 <i2c1_master_rx+0x280>)
 80014e6:	681b      	ldr	r3, [r3, #0]
 80014e8:	b2da      	uxtb	r2, r3
 80014ea:	68bb      	ldr	r3, [r7, #8]
 80014ec:	701a      	strb	r2, [r3, #0]
		msg++;
 80014ee:	68bb      	ldr	r3, [r7, #8]
 80014f0:	3301      	adds	r3, #1
 80014f2:	60bb      	str	r3, [r7, #8]
		*msg = *I2C1_DR;
 80014f4:	4b54      	ldr	r3, [pc, #336]	@ (8001648 <i2c1_master_rx+0x280>)
 80014f6:	681b      	ldr	r3, [r3, #0]
 80014f8:	b2da      	uxtb	r2, r3
 80014fa:	68bb      	ldr	r3, [r7, #8]
 80014fc:	701a      	strb	r2, [r3, #0]

		*I2C1_CR1 &= ~(0x1U << 11U); //POS RESET
 80014fe:	4b50      	ldr	r3, [pc, #320]	@ (8001640 <i2c1_master_rx+0x278>)
 8001500:	681b      	ldr	r3, [r3, #0]
 8001502:	4a4f      	ldr	r2, [pc, #316]	@ (8001640 <i2c1_master_rx+0x278>)
 8001504:	f423 6300 	bic.w	r3, r3, #2048	@ 0x800
 8001508:	6013      	str	r3, [r2, #0]
		break;
 800150a:	e08d      	b.n	8001628 <i2c1_master_rx+0x260>
	default :
		 (void)*I2C1_SR1;
 800150c:	4b4d      	ldr	r3, [pc, #308]	@ (8001644 <i2c1_master_rx+0x27c>)
 800150e:	681b      	ldr	r3, [r3, #0]
		 (void)*I2C1_SR2; //clear ADDR
 8001510:	4b4e      	ldr	r3, [pc, #312]	@ (800164c <i2c1_master_rx+0x284>)
 8001512:	681b      	ldr	r3, [r3, #0]
		while(len>3) {
 8001514:	e028      	b.n	8001568 <i2c1_master_rx+0x1a0>
			t0 = millis();
 8001516:	f000 fa33 	bl	8001980 <millis>
 800151a:	6178      	str	r0, [r7, #20]
			while (((*I2C1_SR1) & (0x1U << 6U)) != (0x1U << 6U)) //EV7
 800151c:	e013      	b.n	8001546 <i2c1_master_rx+0x17e>
			{
			 if(i2c_SR1_ERR()) return -1;
 800151e:	f000 f897 	bl	8001650 <i2c_SR1_ERR>
 8001522:	4603      	mov	r3, r0
 8001524:	2b00      	cmp	r3, #0
 8001526:	d002      	beq.n	800152e <i2c1_master_rx+0x166>
 8001528:	f04f 33ff 	mov.w	r3, #4294967295
 800152c:	e083      	b.n	8001636 <i2c1_master_rx+0x26e>
			 if ((uint32_t)(millis() - t0) > timeout_ms) return -2;
 800152e:	f000 fa27 	bl	8001980 <millis>
 8001532:	4602      	mov	r2, r0
 8001534:	697b      	ldr	r3, [r7, #20]
 8001536:	1ad3      	subs	r3, r2, r3
 8001538:	f241 3288 	movw	r2, #5000	@ 0x1388
 800153c:	4293      	cmp	r3, r2
 800153e:	d902      	bls.n	8001546 <i2c1_master_rx+0x17e>
 8001540:	f06f 0301 	mvn.w	r3, #1
 8001544:	e077      	b.n	8001636 <i2c1_master_rx+0x26e>
			while (((*I2C1_SR1) & (0x1U << 6U)) != (0x1U << 6U)) //EV7
 8001546:	4b3f      	ldr	r3, [pc, #252]	@ (8001644 <i2c1_master_rx+0x27c>)
 8001548:	681b      	ldr	r3, [r3, #0]
 800154a:	f003 0340 	and.w	r3, r3, #64	@ 0x40
 800154e:	2b40      	cmp	r3, #64	@ 0x40
 8001550:	d1e5      	bne.n	800151e <i2c1_master_rx+0x156>
			}
			*msg = *I2C1_DR;
 8001552:	4b3d      	ldr	r3, [pc, #244]	@ (8001648 <i2c1_master_rx+0x280>)
 8001554:	681b      	ldr	r3, [r3, #0]
 8001556:	b2da      	uxtb	r2, r3
 8001558:	68bb      	ldr	r3, [r7, #8]
 800155a:	701a      	strb	r2, [r3, #0]
			msg++;
 800155c:	68bb      	ldr	r3, [r7, #8]
 800155e:	3301      	adds	r3, #1
 8001560:	60bb      	str	r3, [r7, #8]
			len--;
 8001562:	687b      	ldr	r3, [r7, #4]
 8001564:	3b01      	subs	r3, #1
 8001566:	607b      	str	r3, [r7, #4]
		while(len>3) {
 8001568:	687b      	ldr	r3, [r7, #4]
 800156a:	2b03      	cmp	r3, #3
 800156c:	dcd3      	bgt.n	8001516 <i2c1_master_rx+0x14e>
		}
		t0 = millis();
 800156e:	f000 fa07 	bl	8001980 <millis>
 8001572:	6178      	str	r0, [r7, #20]
		while (((*I2C1_SR1) & (0x1U << 2U)) == 0) //BTF == 1 -> break
 8001574:	e013      	b.n	800159e <i2c1_master_rx+0x1d6>
		{
			 if(i2c_SR1_ERR()) return -1;
 8001576:	f000 f86b 	bl	8001650 <i2c_SR1_ERR>
 800157a:	4603      	mov	r3, r0
 800157c:	2b00      	cmp	r3, #0
 800157e:	d002      	beq.n	8001586 <i2c1_master_rx+0x1be>
 8001580:	f04f 33ff 	mov.w	r3, #4294967295
 8001584:	e057      	b.n	8001636 <i2c1_master_rx+0x26e>
			 if ((uint32_t)(millis() - t0) > timeout_ms) return -2;
 8001586:	f000 f9fb 	bl	8001980 <millis>
 800158a:	4602      	mov	r2, r0
 800158c:	697b      	ldr	r3, [r7, #20]
 800158e:	1ad3      	subs	r3, r2, r3
 8001590:	f241 3288 	movw	r2, #5000	@ 0x1388
 8001594:	4293      	cmp	r3, r2
 8001596:	d902      	bls.n	800159e <i2c1_master_rx+0x1d6>
 8001598:	f06f 0301 	mvn.w	r3, #1
 800159c:	e04b      	b.n	8001636 <i2c1_master_rx+0x26e>
		while (((*I2C1_SR1) & (0x1U << 2U)) == 0) //BTF == 1 -> break
 800159e:	4b29      	ldr	r3, [pc, #164]	@ (8001644 <i2c1_master_rx+0x27c>)
 80015a0:	681b      	ldr	r3, [r3, #0]
 80015a2:	f003 0304 	and.w	r3, r3, #4
 80015a6:	2b00      	cmp	r3, #0
 80015a8:	d0e5      	beq.n	8001576 <i2c1_master_rx+0x1ae>
		}
		*I2C1_CR1 &= ~(0x1U << 10U); //RESET CR1 ACK
 80015aa:	4b25      	ldr	r3, [pc, #148]	@ (8001640 <i2c1_master_rx+0x278>)
 80015ac:	681b      	ldr	r3, [r3, #0]
 80015ae:	4a24      	ldr	r2, [pc, #144]	@ (8001640 <i2c1_master_rx+0x278>)
 80015b0:	f423 6380 	bic.w	r3, r3, #1024	@ 0x400
 80015b4:	6013      	str	r3, [r2, #0]
		*msg = *I2C1_DR; // READ len-2
 80015b6:	4b24      	ldr	r3, [pc, #144]	@ (8001648 <i2c1_master_rx+0x280>)
 80015b8:	681b      	ldr	r3, [r3, #0]
 80015ba:	b2da      	uxtb	r2, r3
 80015bc:	68bb      	ldr	r3, [r7, #8]
 80015be:	701a      	strb	r2, [r3, #0]
		msg++;
 80015c0:	68bb      	ldr	r3, [r7, #8]
 80015c2:	3301      	adds	r3, #1
 80015c4:	60bb      	str	r3, [r7, #8]

		t0 = millis();
 80015c6:	f000 f9db 	bl	8001980 <millis>
 80015ca:	6178      	str	r0, [r7, #20]
		while (((*I2C1_SR1) & (0x1U << 2U)) == 0) //BTF == 1 -> break
 80015cc:	e013      	b.n	80015f6 <i2c1_master_rx+0x22e>
		{
			 if(i2c_SR1_ERR()) return -1;
 80015ce:	f000 f83f 	bl	8001650 <i2c_SR1_ERR>
 80015d2:	4603      	mov	r3, r0
 80015d4:	2b00      	cmp	r3, #0
 80015d6:	d002      	beq.n	80015de <i2c1_master_rx+0x216>
 80015d8:	f04f 33ff 	mov.w	r3, #4294967295
 80015dc:	e02b      	b.n	8001636 <i2c1_master_rx+0x26e>
			 if ((uint32_t)(millis() - t0) > timeout_ms) return -2;
 80015de:	f000 f9cf 	bl	8001980 <millis>
 80015e2:	4602      	mov	r2, r0
 80015e4:	697b      	ldr	r3, [r7, #20]
 80015e6:	1ad3      	subs	r3, r2, r3
 80015e8:	f241 3288 	movw	r2, #5000	@ 0x1388
 80015ec:	4293      	cmp	r3, r2
 80015ee:	d902      	bls.n	80015f6 <i2c1_master_rx+0x22e>
 80015f0:	f06f 0301 	mvn.w	r3, #1
 80015f4:	e01f      	b.n	8001636 <i2c1_master_rx+0x26e>
		while (((*I2C1_SR1) & (0x1U << 2U)) == 0) //BTF == 1 -> break
 80015f6:	4b13      	ldr	r3, [pc, #76]	@ (8001644 <i2c1_master_rx+0x27c>)
 80015f8:	681b      	ldr	r3, [r3, #0]
 80015fa:	f003 0304 	and.w	r3, r3, #4
 80015fe:	2b00      	cmp	r3, #0
 8001600:	d0e5      	beq.n	80015ce <i2c1_master_rx+0x206>
		}
		*I2C1_CR1 |= (0x1U << 9U); //stop bit
 8001602:	4b0f      	ldr	r3, [pc, #60]	@ (8001640 <i2c1_master_rx+0x278>)
 8001604:	681b      	ldr	r3, [r3, #0]
 8001606:	4a0e      	ldr	r2, [pc, #56]	@ (8001640 <i2c1_master_rx+0x278>)
 8001608:	f443 7300 	orr.w	r3, r3, #512	@ 0x200
 800160c:	6013      	str	r3, [r2, #0]
		*msg = *I2C1_DR; // READ len-1
 800160e:	4b0e      	ldr	r3, [pc, #56]	@ (8001648 <i2c1_master_rx+0x280>)
 8001610:	681b      	ldr	r3, [r3, #0]
 8001612:	b2da      	uxtb	r2, r3
 8001614:	68bb      	ldr	r3, [r7, #8]
 8001616:	701a      	strb	r2, [r3, #0]
		msg++;
 8001618:	68bb      	ldr	r3, [r7, #8]
 800161a:	3301      	adds	r3, #1
 800161c:	60bb      	str	r3, [r7, #8]
		*msg = *I2C1_DR; // READ len
 800161e:	4b0a      	ldr	r3, [pc, #40]	@ (8001648 <i2c1_master_rx+0x280>)
 8001620:	681b      	ldr	r3, [r3, #0]
 8001622:	b2da      	uxtb	r2, r3
 8001624:	68bb      	ldr	r3, [r7, #8]
 8001626:	701a      	strb	r2, [r3, #0]
	}
	*I2C1_CR1|=(0x1U << 10U); //SET CR1 ACK
 8001628:	4b05      	ldr	r3, [pc, #20]	@ (8001640 <i2c1_master_rx+0x278>)
 800162a:	681b      	ldr	r3, [r3, #0]
 800162c:	4a04      	ldr	r2, [pc, #16]	@ (8001640 <i2c1_master_rx+0x278>)
 800162e:	f443 6380 	orr.w	r3, r3, #1024	@ 0x400
 8001632:	6013      	str	r3, [r2, #0]
	return 0;
 8001634:	2300      	movs	r3, #0
}
 8001636:	4618      	mov	r0, r3
 8001638:	3718      	adds	r7, #24
 800163a:	46bd      	mov	sp, r7
 800163c:	bd80      	pop	{r7, pc}
 800163e:	bf00      	nop
 8001640:	40005400 	.word	0x40005400
 8001644:	40005414 	.word	0x40005414
 8001648:	40005410 	.word	0x40005410
 800164c:	40005418 	.word	0x40005418

08001650 <i2c_SR1_ERR>:

	return 0;

}

int i2c_SR1_ERR(void) {
 8001650:	b480      	push	{r7}
 8001652:	af00      	add	r7, sp, #0


	if ((*I2C1_SR1 & (1U << 10)) || (*I2C1_SR1 & (1U << 9)) || (*I2C1_SR1 & (1U << 8))) {  // AF,ARLO,BERR
 8001654:	4b19      	ldr	r3, [pc, #100]	@ (80016bc <i2c_SR1_ERR+0x6c>)
 8001656:	681b      	ldr	r3, [r3, #0]
 8001658:	f403 6380 	and.w	r3, r3, #1024	@ 0x400
 800165c:	2b00      	cmp	r3, #0
 800165e:	d10b      	bne.n	8001678 <i2c_SR1_ERR+0x28>
 8001660:	4b16      	ldr	r3, [pc, #88]	@ (80016bc <i2c_SR1_ERR+0x6c>)
 8001662:	681b      	ldr	r3, [r3, #0]
 8001664:	f403 7300 	and.w	r3, r3, #512	@ 0x200
 8001668:	2b00      	cmp	r3, #0
 800166a:	d105      	bne.n	8001678 <i2c_SR1_ERR+0x28>
 800166c:	4b13      	ldr	r3, [pc, #76]	@ (80016bc <i2c_SR1_ERR+0x6c>)
 800166e:	681b      	ldr	r3, [r3, #0]
 8001670:	f403 7380 	and.w	r3, r3, #256	@ 0x100
 8001674:	2b00      	cmp	r3, #0
 8001676:	d01a      	beq.n	80016ae <i2c_SR1_ERR+0x5e>
		*I2C1_SR1 &= ~(1U << 10); // AF clear
 8001678:	4b10      	ldr	r3, [pc, #64]	@ (80016bc <i2c_SR1_ERR+0x6c>)
 800167a:	681b      	ldr	r3, [r3, #0]
 800167c:	4a0f      	ldr	r2, [pc, #60]	@ (80016bc <i2c_SR1_ERR+0x6c>)
 800167e:	f423 6380 	bic.w	r3, r3, #1024	@ 0x400
 8001682:	6013      	str	r3, [r2, #0]
		*I2C1_SR1 &= ~(1U << 9); //  ARLO
 8001684:	4b0d      	ldr	r3, [pc, #52]	@ (80016bc <i2c_SR1_ERR+0x6c>)
 8001686:	681b      	ldr	r3, [r3, #0]
 8001688:	4a0c      	ldr	r2, [pc, #48]	@ (80016bc <i2c_SR1_ERR+0x6c>)
 800168a:	f423 7300 	bic.w	r3, r3, #512	@ 0x200
 800168e:	6013      	str	r3, [r2, #0]
		*I2C1_SR1 &= ~(1U << 8); //  BERR
 8001690:	4b0a      	ldr	r3, [pc, #40]	@ (80016bc <i2c_SR1_ERR+0x6c>)
 8001692:	681b      	ldr	r3, [r3, #0]
 8001694:	4a09      	ldr	r2, [pc, #36]	@ (80016bc <i2c_SR1_ERR+0x6c>)
 8001696:	f423 7380 	bic.w	r3, r3, #256	@ 0x100
 800169a:	6013      	str	r3, [r2, #0]
		*I2C1_CR1 |= (1U << 9);
 800169c:	4b08      	ldr	r3, [pc, #32]	@ (80016c0 <i2c_SR1_ERR+0x70>)
 800169e:	681b      	ldr	r3, [r3, #0]
 80016a0:	4a07      	ldr	r2, [pc, #28]	@ (80016c0 <i2c_SR1_ERR+0x70>)
 80016a2:	f443 7300 	orr.w	r3, r3, #512	@ 0x200
 80016a6:	6013      	str	r3, [r2, #0]
	 return -1;
 80016a8:	f04f 33ff 	mov.w	r3, #4294967295
 80016ac:	e000      	b.n	80016b0 <i2c_SR1_ERR+0x60>
	}
	return 0;
 80016ae:	2300      	movs	r3, #0
}
 80016b0:	4618      	mov	r0, r3
 80016b2:	46bd      	mov	sp, r7
 80016b4:	f85d 7b04 	ldr.w	r7, [sp], #4
 80016b8:	4770      	bx	lr
 80016ba:	bf00      	nop
 80016bc:	40005414 	.word	0x40005414
 80016c0:	40005400 	.word	0x40005400

080016c4 <at24c256_write>:

int at24c256_write(uint16_t mem_addr, const uint8_t* data, uint16_t len)
{
 80016c4:	b580      	push	{r7, lr}
 80016c6:	b096      	sub	sp, #88	@ 0x58
 80016c8:	af00      	add	r7, sp, #0
 80016ca:	4603      	mov	r3, r0
 80016cc:	6039      	str	r1, [r7, #0]
 80016ce:	80fb      	strh	r3, [r7, #6]
 80016d0:	4613      	mov	r3, r2
 80016d2:	80bb      	strh	r3, [r7, #4]
    // AT24C256 : 2byte
    uint8_t buf[2 + 64]; // 2B addr + 64B data
    if (len > 64) return -1;
 80016d4:	88bb      	ldrh	r3, [r7, #4]
 80016d6:	2b40      	cmp	r3, #64	@ 0x40
 80016d8:	d902      	bls.n	80016e0 <at24c256_write+0x1c>
 80016da:	f04f 33ff 	mov.w	r3, #4294967295
 80016de:	e02e      	b.n	800173e <at24c256_write+0x7a>

    buf[0] = (uint8_t)(mem_addr >> 0x8U);
 80016e0:	88fb      	ldrh	r3, [r7, #6]
 80016e2:	0a1b      	lsrs	r3, r3, #8
 80016e4:	b29b      	uxth	r3, r3
 80016e6:	b2db      	uxtb	r3, r3
 80016e8:	733b      	strb	r3, [r7, #12]
    buf[1] = (uint8_t)(mem_addr & 0xFF);
 80016ea:	88fb      	ldrh	r3, [r7, #6]
 80016ec:	b2db      	uxtb	r3, r3
 80016ee:	737b      	strb	r3, [r7, #13]
    for (uint16_t i = 0; i < len; i++) buf[2 + i] = data[i];
 80016f0:	2300      	movs	r3, #0
 80016f2:	f8a7 3056 	strh.w	r3, [r7, #86]	@ 0x56
 80016f6:	e010      	b.n	800171a <at24c256_write+0x56>
 80016f8:	f8b7 3056 	ldrh.w	r3, [r7, #86]	@ 0x56
 80016fc:	683a      	ldr	r2, [r7, #0]
 80016fe:	441a      	add	r2, r3
 8001700:	f8b7 3056 	ldrh.w	r3, [r7, #86]	@ 0x56
 8001704:	3302      	adds	r3, #2
 8001706:	7812      	ldrb	r2, [r2, #0]
 8001708:	3358      	adds	r3, #88	@ 0x58
 800170a:	443b      	add	r3, r7
 800170c:	f803 2c4c 	strb.w	r2, [r3, #-76]
 8001710:	f8b7 3056 	ldrh.w	r3, [r7, #86]	@ 0x56
 8001714:	3301      	adds	r3, #1
 8001716:	f8a7 3056 	strh.w	r3, [r7, #86]	@ 0x56
 800171a:	f8b7 2056 	ldrh.w	r2, [r7, #86]	@ 0x56
 800171e:	88bb      	ldrh	r3, [r7, #4]
 8001720:	429a      	cmp	r2, r3
 8001722:	d3e9      	bcc.n	80016f8 <at24c256_write+0x34>

    int r = i2c1_master_tx(AT24_ADDR_8BIT, buf, 2 + len);
 8001724:	88bb      	ldrh	r3, [r7, #4]
 8001726:	1c9a      	adds	r2, r3, #2
 8001728:	f107 030c 	add.w	r3, r7, #12
 800172c:	4619      	mov	r1, r3
 800172e:	20a0      	movs	r0, #160	@ 0xa0
 8001730:	f7ff fd7c 	bl	800122c <i2c1_master_tx>
 8001734:	6538      	str	r0, [r7, #80]	@ 0x50

    // EEPROM write cycle
    delay(5);
 8001736:	2005      	movs	r0, #5
 8001738:	f000 f90c 	bl	8001954 <delay>

    return r;
 800173c:	6d3b      	ldr	r3, [r7, #80]	@ 0x50
}
 800173e:	4618      	mov	r0, r3
 8001740:	3758      	adds	r7, #88	@ 0x58
 8001742:	46bd      	mov	sp, r7
 8001744:	bd80      	pop	{r7, pc}

08001746 <at24c256_read>:

//read: 2byte + stop + (read)
int at24c256_read(uint16_t mem, uint8_t* out, uint16_t len)
{
 8001746:	b580      	push	{r7, lr}
 8001748:	b084      	sub	sp, #16
 800174a:	af00      	add	r7, sp, #0
 800174c:	4603      	mov	r3, r0
 800174e:	6039      	str	r1, [r7, #0]
 8001750:	80fb      	strh	r3, [r7, #6]
 8001752:	4613      	mov	r3, r2
 8001754:	80bb      	strh	r3, [r7, #4]
    uint8_t a[2] = { (uint8_t)(mem >> 0x8U), (uint8_t)(mem & 0xFF) };
 8001756:	88fb      	ldrh	r3, [r7, #6]
 8001758:	0a1b      	lsrs	r3, r3, #8
 800175a:	b29b      	uxth	r3, r3
 800175c:	b2db      	uxtb	r3, r3
 800175e:	723b      	strb	r3, [r7, #8]
 8001760:	88fb      	ldrh	r3, [r7, #6]
 8001762:	b2db      	uxtb	r3, r3
 8001764:	727b      	strb	r3, [r7, #9]
    int r = i2c1_master_tx(AT24_ADDR_8BIT, a, 2);
 8001766:	f107 0308 	add.w	r3, r7, #8
 800176a:	2202      	movs	r2, #2
 800176c:	4619      	mov	r1, r3
 800176e:	20a0      	movs	r0, #160	@ 0xa0
 8001770:	f7ff fd5c 	bl	800122c <i2c1_master_tx>
 8001774:	60f8      	str	r0, [r7, #12]
    if (r != 0) return -1;
 8001776:	68fb      	ldr	r3, [r7, #12]
 8001778:	2b00      	cmp	r3, #0
 800177a:	d002      	beq.n	8001782 <at24c256_read+0x3c>
 800177c:	f04f 33ff 	mov.w	r3, #4294967295
 8001780:	e006      	b.n	8001790 <at24c256_read+0x4a>
    return i2c1_master_rx(AT24_ADDR_8BIT, out, len);
 8001782:	88bb      	ldrh	r3, [r7, #4]
 8001784:	461a      	mov	r2, r3
 8001786:	6839      	ldr	r1, [r7, #0]
 8001788:	20a0      	movs	r0, #160	@ 0xa0
 800178a:	f7ff fe1d 	bl	80013c8 <i2c1_master_rx>
 800178e:	4603      	mov	r3, r0
}
 8001790:	4618      	mov	r0, r3
 8001792:	3710      	adds	r7, #16
 8001794:	46bd      	mov	sp, r7
 8001796:	bd80      	pop	{r7, pc}

08001798 <__NVIC_SystemReset>:
/**
  \brief   System Reset
  \details Initiates a system reset request to reset the MCU.
 */
__NO_RETURN __STATIC_INLINE void __NVIC_SystemReset(void)
{
 8001798:	b480      	push	{r7}
 800179a:	af00      	add	r7, sp, #0
  __ASM volatile ("dsb 0xF":::"memory");
 800179c:	f3bf 8f4f 	dsb	sy
}
 80017a0:	bf00      	nop
  __DSB();                                                          /* Ensure all outstanding memory accesses included
                                                                       buffered write are completed before reset */
  SCB->AIRCR  = (uint32_t)((0x5FAUL << SCB_AIRCR_VECTKEY_Pos)    |
                           (SCB->AIRCR & SCB_AIRCR_PRIGROUP_Msk) |
 80017a2:	4b06      	ldr	r3, [pc, #24]	@ (80017bc <__NVIC_SystemReset+0x24>)
 80017a4:	68db      	ldr	r3, [r3, #12]
 80017a6:	f403 62e0 	and.w	r2, r3, #1792	@ 0x700
  SCB->AIRCR  = (uint32_t)((0x5FAUL << SCB_AIRCR_VECTKEY_Pos)    |
 80017aa:	4904      	ldr	r1, [pc, #16]	@ (80017bc <__NVIC_SystemReset+0x24>)
 80017ac:	4b04      	ldr	r3, [pc, #16]	@ (80017c0 <__NVIC_SystemReset+0x28>)
 80017ae:	4313      	orrs	r3, r2
 80017b0:	60cb      	str	r3, [r1, #12]
  __ASM volatile ("dsb 0xF":::"memory");
 80017b2:	f3bf 8f4f 	dsb	sy
}
 80017b6:	bf00      	nop
                            SCB_AIRCR_SYSRESETREQ_Msk    );         /* Keep priority group unchanged */
  __DSB();                                                          /* Ensure completion of memory access */

  for(;;)                                                           /* wait until reset */
  {
    __NOP();
 80017b8:	bf00      	nop
 80017ba:	e7fd      	b.n	80017b8 <__NVIC_SystemReset+0x20>
 80017bc:	e000ed00 	.word	0xe000ed00
 80017c0:	05fa0004 	.word	0x05fa0004

080017c4 <NMI_Handler>:
/******************************************************************************/
/**
  * @brief This function handles Non maskable interrupt.
  */
void NMI_Handler(void)
{
 80017c4:	b480      	push	{r7}
 80017c6:	af00      	add	r7, sp, #0
  /* USER CODE BEGIN NonMaskableInt_IRQn 0 */

  /* USER CODE END NonMaskableInt_IRQn 0 */
  /* USER CODE BEGIN NonMaskableInt_IRQn 1 */
   while (1)
 80017c8:	bf00      	nop
 80017ca:	e7fd      	b.n	80017c8 <NMI_Handler+0x4>

080017cc <HardFault_Handler>:

/**
  * @brief This function handles Hard fault interrupt.
  */
void HardFault_Handler(void)
{
 80017cc:	b580      	push	{r7, lr}
 80017ce:	b084      	sub	sp, #16
 80017d0:	af00      	add	r7, sp, #0
  __ASM volatile ("cpsid i" : : : "memory");
 80017d2:	b672      	cpsid	i
}
 80017d4:	bf00      	nop
  /* USER CODE BEGIN HardFault_IRQn 0 */

    __disable_irq();

    g_crashlog.magic   = CRASHLOG_MAGIC;
 80017d6:	4b21      	ldr	r3, [pc, #132]	@ (800185c <HardFault_Handler+0x90>)
 80017d8:	4a21      	ldr	r2, [pc, #132]	@ (8001860 <HardFault_Handler+0x94>)
 80017da:	601a      	str	r2, [r3, #0]
    g_crashlog.ver     = CRASHLOG_VER;
 80017dc:	4b1f      	ldr	r3, [pc, #124]	@ (800185c <HardFault_Handler+0x90>)
 80017de:	2201      	movs	r2, #1
 80017e0:	605a      	str	r2, [r3, #4]
    g_crashlog.seq     = g_crashlog.seq + 1;
 80017e2:	4b1e      	ldr	r3, [pc, #120]	@ (800185c <HardFault_Handler+0x90>)
 80017e4:	689b      	ldr	r3, [r3, #8]
 80017e6:	3301      	adds	r3, #1
 80017e8:	4a1c      	ldr	r2, [pc, #112]	@ (800185c <HardFault_Handler+0x90>)
 80017ea:	6093      	str	r3, [r2, #8]

    g_crashlog.vtor    = *SCB_VTOR;
 80017ec:	4b1d      	ldr	r3, [pc, #116]	@ (8001864 <HardFault_Handler+0x98>)
 80017ee:	681b      	ldr	r3, [r3, #0]
 80017f0:	4a1a      	ldr	r2, [pc, #104]	@ (800185c <HardFault_Handler+0x90>)
 80017f2:	60d3      	str	r3, [r2, #12]
    g_crashlog.hfsr    = *SCB_HFSR;
 80017f4:	4b1c      	ldr	r3, [pc, #112]	@ (8001868 <HardFault_Handler+0x9c>)
 80017f6:	681b      	ldr	r3, [r3, #0]
 80017f8:	4a18      	ldr	r2, [pc, #96]	@ (800185c <HardFault_Handler+0x90>)
 80017fa:	6113      	str	r3, [r2, #16]
    g_crashlog.cfsr    = *SCB_CFSR;
 80017fc:	4b1b      	ldr	r3, [pc, #108]	@ (800186c <HardFault_Handler+0xa0>)
 80017fe:	681b      	ldr	r3, [r3, #0]
 8001800:	4a16      	ldr	r2, [pc, #88]	@ (800185c <HardFault_Handler+0x90>)
 8001802:	6153      	str	r3, [r2, #20]
    g_crashlog.shcsr   = *SCB_SHCSR;
 8001804:	4b1a      	ldr	r3, [pc, #104]	@ (8001870 <HardFault_Handler+0xa4>)
 8001806:	681b      	ldr	r3, [r3, #0]
 8001808:	4a14      	ldr	r2, [pc, #80]	@ (800185c <HardFault_Handler+0x90>)
 800180a:	6193      	str	r3, [r2, #24]


    g_crashlog.mmfar   = *SCB_MMFAR;
 800180c:	4b19      	ldr	r3, [pc, #100]	@ (8001874 <HardFault_Handler+0xa8>)
 800180e:	681b      	ldr	r3, [r3, #0]
 8001810:	4a12      	ldr	r2, [pc, #72]	@ (800185c <HardFault_Handler+0x90>)
 8001812:	61d3      	str	r3, [r2, #28]
    g_crashlog.bfar    = *SCB_BFAR;
 8001814:	4b18      	ldr	r3, [pc, #96]	@ (8001878 <HardFault_Handler+0xac>)
 8001816:	681b      	ldr	r3, [r3, #0]
 8001818:	4a10      	ldr	r2, [pc, #64]	@ (800185c <HardFault_Handler+0x90>)
 800181a:	6213      	str	r3, [r2, #32]
    g_crashlog.afsr    = *SCB_AFSR;
 800181c:	4b17      	ldr	r3, [pc, #92]	@ (800187c <HardFault_Handler+0xb0>)
 800181e:	681b      	ldr	r3, [r3, #0]
 8001820:	4a0e      	ldr	r2, [pc, #56]	@ (800185c <HardFault_Handler+0x90>)
 8001822:	6253      	str	r3, [r2, #36]	@ 0x24
    g_crashlog.dfsr = *SCB_DFSR;
 8001824:	4b16      	ldr	r3, [pc, #88]	@ (8001880 <HardFault_Handler+0xb4>)
 8001826:	681b      	ldr	r3, [r3, #0]
 8001828:	4a0c      	ldr	r2, [pc, #48]	@ (800185c <HardFault_Handler+0x90>)
 800182a:	6353      	str	r3, [r2, #52]	@ 0x34
  __ASM volatile ("MRS %0, msp" : "=r" (result) );
 800182c:	f3ef 8308 	mrs	r3, MSP
 8001830:	607b      	str	r3, [r7, #4]
  return(result);
 8001832:	687b      	ldr	r3, [r7, #4]

    g_crashlog.msp     = __get_MSP();
 8001834:	4a09      	ldr	r2, [pc, #36]	@ (800185c <HardFault_Handler+0x90>)
 8001836:	6293      	str	r3, [r2, #40]	@ 0x28
  __ASM volatile ("MRS %0, psp"  : "=r" (result) );
 8001838:	f3ef 8309 	mrs	r3, PSP
 800183c:	60bb      	str	r3, [r7, #8]
  return(result);
 800183e:	68bb      	ldr	r3, [r7, #8]
    g_crashlog.psp     = __get_PSP();
 8001840:	4a06      	ldr	r2, [pc, #24]	@ (800185c <HardFault_Handler+0x90>)
 8001842:	62d3      	str	r3, [r2, #44]	@ 0x2c
  __ASM volatile ("MRS %0, control" : "=r" (result) );
 8001844:	f3ef 8314 	mrs	r3, CONTROL
 8001848:	60fb      	str	r3, [r7, #12]
  return(result);
 800184a:	68fb      	ldr	r3, [r7, #12]
    g_crashlog.control = __get_CONTROL();
 800184c:	4a03      	ldr	r2, [pc, #12]	@ (800185c <HardFault_Handler+0x90>)
 800184e:	6313      	str	r3, [r2, #48]	@ 0x30
  __ASM volatile ("dsb 0xF":::"memory");
 8001850:	f3bf 8f4f 	dsb	sy
}
 8001854:	bf00      	nop


    __DSB();

    NVIC_SystemReset();
 8001856:	f7ff ff9f 	bl	8001798 <__NVIC_SystemReset>
 800185a:	bf00      	nop
 800185c:	2002ff00 	.word	0x2002ff00
 8001860:	434c4f47 	.word	0x434c4f47
 8001864:	e000ed08 	.word	0xe000ed08
 8001868:	e000ed2c 	.word	0xe000ed2c
 800186c:	e000ed28 	.word	0xe000ed28
 8001870:	e000ed24 	.word	0xe000ed24
 8001874:	e000ed34 	.word	0xe000ed34
 8001878:	e000ed38 	.word	0xe000ed38
 800187c:	e000ed3c 	.word	0xe000ed3c
 8001880:	e000ed30 	.word	0xe000ed30

08001884 <MemManage_Handler>:

/**
  * @brief This function handles Memory management fault.
  */
void MemManage_Handler(void)
{
 8001884:	b480      	push	{r7}
 8001886:	af00      	add	r7, sp, #0
  /* USER CODE BEGIN MemoryManagement_IRQn 0 */

  /* USER CODE END MemoryManagement_IRQn 0 */
  while (1)
 8001888:	bf00      	nop
 800188a:	e7fd      	b.n	8001888 <MemManage_Handler+0x4>

0800188c <BusFault_Handler>:

/**
  * @brief This function handles Pre-fetch fault, memory access fault.
  */
void BusFault_Handler(void)
{
 800188c:	b480      	push	{r7}
 800188e:	af00      	add	r7, sp, #0
  /* USER CODE BEGIN BusFault_IRQn 0 */

  /* USER CODE END BusFault_IRQn 0 */
  while (1)
 8001890:	bf00      	nop
 8001892:	e7fd      	b.n	8001890 <BusFault_Handler+0x4>

08001894 <UsageFault_Handler>:

/**
  * @brief This function handles Undefined instruction or illegal state.
  */
void UsageFault_Handler(void)
{
 8001894:	b480      	push	{r7}
 8001896:	af00      	add	r7, sp, #0
  /* USER CODE BEGIN UsageFault_IRQn 0 */

  /* USER CODE END UsageFault_IRQn 0 */
  while (1)
 8001898:	bf00      	nop
 800189a:	e7fd      	b.n	8001898 <UsageFault_Handler+0x4>

0800189c <SVC_Handler>:

/**
  * @brief This function handles System service call via SWI instruction.
  */
void SVC_Handler(void)
{
 800189c:	b480      	push	{r7}
 800189e:	af00      	add	r7, sp, #0

  /* USER CODE END SVCall_IRQn 0 */
  /* USER CODE BEGIN SVCall_IRQn 1 */

  /* USER CODE END SVCall_IRQn 1 */
}
 80018a0:	bf00      	nop
 80018a2:	46bd      	mov	sp, r7
 80018a4:	f85d 7b04 	ldr.w	r7, [sp], #4
 80018a8:	4770      	bx	lr

080018aa <DebugMon_Handler>:

/**
  * @brief This function handles Debug monitor.
  */
void DebugMon_Handler(void)
{
 80018aa:	b480      	push	{r7}
 80018ac:	af00      	add	r7, sp, #0

  /* USER CODE END DebugMonitor_IRQn 0 */
  /* USER CODE BEGIN DebugMonitor_IRQn 1 */

  /* USER CODE END DebugMonitor_IRQn 1 */
}
 80018ae:	bf00      	nop
 80018b0:	46bd      	mov	sp, r7
 80018b2:	f85d 7b04 	ldr.w	r7, [sp], #4
 80018b6:	4770      	bx	lr

080018b8 <PendSV_Handler>:

/**
  * @brief This function handles Pendable request for system service.
  */
void PendSV_Handler(void)
{
 80018b8:	b480      	push	{r7}
 80018ba:	af00      	add	r7, sp, #0

  /* USER CODE END PendSV_IRQn 0 */
  /* USER CODE BEGIN PendSV_IRQn 1 */

  /* USER CODE END PendSV_IRQn 1 */
}
 80018bc:	bf00      	nop
 80018be:	46bd      	mov	sp, r7
 80018c0:	f85d 7b04 	ldr.w	r7, [sp], #4
 80018c4:	4770      	bx	lr

080018c6 <SysTick_Handler>:

/**
  * @brief This function handles System tick timer.
  */
void SysTick_Handler(void)
{
 80018c6:	b580      	push	{r7, lr}
 80018c8:	af00      	add	r7, sp, #0
  /* USER CODE BEGIN SysTick_IRQn 0 */
	timebase_isr_tick();
 80018ca:	f000 f815 	bl	80018f8 <timebase_isr_tick>
  /* USER CODE END SysTick_IRQn 0 */
  //HAL_IncTick();
  /* USER CODE BEGIN SysTick_IRQn 1 */

  /* USER CODE END SysTick_IRQn 1 */
}
 80018ce:	bf00      	nop
 80018d0:	bd80      	pop	{r7, pc}
	...

080018d4 <SystemInit>:
  *         configuration.
  * @param  None
  * @retval None
  */
void SystemInit(void)
{
 80018d4:	b480      	push	{r7}
 80018d6:	af00      	add	r7, sp, #0
  /* FPU settings ------------------------------------------------------------*/
  #if (__FPU_PRESENT == 1) && (__FPU_USED == 1)
    SCB->CPACR |= ((3UL << 10*2)|(3UL << 11*2));  /* set CP10 and CP11 Full Access */
 80018d8:	4b06      	ldr	r3, [pc, #24]	@ (80018f4 <SystemInit+0x20>)
 80018da:	f8d3 3088 	ldr.w	r3, [r3, #136]	@ 0x88
 80018de:	4a05      	ldr	r2, [pc, #20]	@ (80018f4 <SystemInit+0x20>)
 80018e0:	f443 0370 	orr.w	r3, r3, #15728640	@ 0xf00000
 80018e4:	f8c2 3088 	str.w	r3, [r2, #136]	@ 0x88

  /* Configure the Vector Table location -------------------------------------*/
#if defined(USER_VECT_TAB_ADDRESS)
  SCB->VTOR = VECT_TAB_BASE_ADDRESS | VECT_TAB_OFFSET; /* Vector Table Relocation in Internal SRAM */
#endif /* USER_VECT_TAB_ADDRESS */
}
 80018e8:	bf00      	nop
 80018ea:	46bd      	mov	sp, r7
 80018ec:	f85d 7b04 	ldr.w	r7, [sp], #4
 80018f0:	4770      	bx	lr
 80018f2:	bf00      	nop
 80018f4:	e000ed00 	.word	0xe000ed00

080018f8 <timebase_isr_tick>:
#include <gpio.h>
#include <clock.h>

static volatile uint32_t sys_ms=0;

void timebase_isr_tick(void){
 80018f8:	b480      	push	{r7}
 80018fa:	af00      	add	r7, sp, #0
	 sys_ms++;
 80018fc:	4b04      	ldr	r3, [pc, #16]	@ (8001910 <timebase_isr_tick+0x18>)
 80018fe:	681b      	ldr	r3, [r3, #0]
 8001900:	3301      	adds	r3, #1
 8001902:	4a03      	ldr	r2, [pc, #12]	@ (8001910 <timebase_isr_tick+0x18>)
 8001904:	6013      	str	r3, [r2, #0]
}
 8001906:	bf00      	nop
 8001908:	46bd      	mov	sp, r7
 800190a:	f85d 7b04 	ldr.w	r7, [sp], #4
 800190e:	4770      	bx	lr
 8001910:	20000028 	.word	0x20000028

08001914 <sys_init>:

void sys_init(uint32_t tick_hz)
{
 8001914:	b580      	push	{r7, lr}
 8001916:	b084      	sub	sp, #16
 8001918:	af00      	add	r7, sp, #0
 800191a:	6078      	str	r0, [r7, #4]
    uint32_t hclk = get_hclk();
 800191c:	f7fe fd8c 	bl	8000438 <get_hclk>
 8001920:	60f8      	str	r0, [r7, #12]
    uint32_t reload = (hclk / tick_hz) - 1U;
 8001922:	68fa      	ldr	r2, [r7, #12]
 8001924:	687b      	ldr	r3, [r7, #4]
 8001926:	fbb2 f3f3 	udiv	r3, r2, r3
 800192a:	3b01      	subs	r3, #1
 800192c:	60bb      	str	r3, [r7, #8]

    *STK_LOAD = reload;
 800192e:	4a06      	ldr	r2, [pc, #24]	@ (8001948 <sys_init+0x34>)
 8001930:	68bb      	ldr	r3, [r7, #8]
 8001932:	6013      	str	r3, [r2, #0]
    *STK_VAL  = 0U;
 8001934:	4b05      	ldr	r3, [pc, #20]	@ (800194c <sys_init+0x38>)
 8001936:	2200      	movs	r2, #0
 8001938:	601a      	str	r2, [r3, #0]
    *STK_CTRL = (1U<<2) | (1U<<1) | (1U<<0);
 800193a:	4b05      	ldr	r3, [pc, #20]	@ (8001950 <sys_init+0x3c>)
 800193c:	2207      	movs	r2, #7
 800193e:	601a      	str	r2, [r3, #0]
}
 8001940:	bf00      	nop
 8001942:	3710      	adds	r7, #16
 8001944:	46bd      	mov	sp, r7
 8001946:	bd80      	pop	{r7, pc}
 8001948:	e000e014 	.word	0xe000e014
 800194c:	e000e018 	.word	0xe000e018
 8001950:	e000e010 	.word	0xe000e010

08001954 <delay>:
	*STK_VAL  = 0U;
	*STK_CTRL = 0x7U;
}


void delay(uint32_t ms){
 8001954:	b580      	push	{r7, lr}
 8001956:	b084      	sub	sp, #16
 8001958:	af00      	add	r7, sp, #0
 800195a:	6078      	str	r0, [r7, #4]
	uint32_t start = millis();
 800195c:	f000 f810 	bl	8001980 <millis>
 8001960:	60f8      	str	r0, [r7, #12]
	while ((uint32_t)(millis() - start) < ms) { }
 8001962:	bf00      	nop
 8001964:	f000 f80c 	bl	8001980 <millis>
 8001968:	4602      	mov	r2, r0
 800196a:	68fb      	ldr	r3, [r7, #12]
 800196c:	1ad3      	subs	r3, r2, r3
 800196e:	687a      	ldr	r2, [r7, #4]
 8001970:	429a      	cmp	r2, r3
 8001972:	d8f7      	bhi.n	8001964 <delay+0x10>
}
 8001974:	bf00      	nop
 8001976:	bf00      	nop
 8001978:	3710      	adds	r7, #16
 800197a:	46bd      	mov	sp, r7
 800197c:	bd80      	pop	{r7, pc}
	...

08001980 <millis>:


uint32_t millis(void){
 8001980:	b480      	push	{r7}
 8001982:	af00      	add	r7, sp, #0
	return sys_ms;
 8001984:	4b03      	ldr	r3, [pc, #12]	@ (8001994 <millis+0x14>)
 8001986:	681b      	ldr	r3, [r3, #0]
}
 8001988:	4618      	mov	r0, r3
 800198a:	46bd      	mov	sp, r7
 800198c:	f85d 7b04 	ldr.w	r7, [sp], #4
 8001990:	4770      	bx	lr
 8001992:	bf00      	nop
 8001994:	20000028 	.word	0x20000028

08001998 <USART6_INIT>:
#include "uart6.h"
#include "f429zi_reg.h"
#include "gpio.h"

//USART6(APB2) TX:PC6 RX:PC7 baud 115200
void USART6_INIT(void){
 8001998:	b580      	push	{r7, lr}
 800199a:	b086      	sub	sp, #24
 800199c:	af00      	add	r7, sp, #0
	volatile uint32_t* GPIOC_MODER=
 800199e:	4b24      	ldr	r3, [pc, #144]	@ (8001a30 <USART6_INIT+0x98>)
 80019a0:	617b      	str	r3, [r7, #20]
			(volatile uint32_t*)((uintptr_t)GPIO_BASE_VAL + (GPIO_PORT_C * 0x400) + 0x00U);
	uint32_t const GPIO_MOD_Mask = (0xaU << (2U * 6U));
 80019a2:	f44f 4320 	mov.w	r3, #40960	@ 0xa000
 80019a6:	613b      	str	r3, [r7, #16]
	uint32_t const GPIO_MOD_ClearMask = ~(0xfU << (2U * 6U));
 80019a8:	f46f 4370 	mvn.w	r3, #61440	@ 0xf000
 80019ac:	60fb      	str	r3, [r7, #12]

	volatile uint32_t* GPIOC_AFRL=
 80019ae:	4b21      	ldr	r3, [pc, #132]	@ (8001a34 <USART6_INIT+0x9c>)
 80019b0:	60bb      	str	r3, [r7, #8]
				(volatile uint32_t*)((uintptr_t)GPIO_BASE_VAL + (GPIO_PORT_C * 0x400) + 0x20U);
	uint32_t const GPIO_AFRL_Mask = (0x88U << 24U);
 80019b2:	f04f 4308 	mov.w	r3, #2281701376	@ 0x88000000
 80019b6:	607b      	str	r3, [r7, #4]
	uint32_t const GPIO_AFRL_ClearMask = ~(0xffU << 24U);
 80019b8:	f06f 437f 	mvn.w	r3, #4278190080	@ 0xff000000
 80019bc:	603b      	str	r3, [r7, #0]

	*APB2ENR |=(1U<<5);
 80019be:	4b1e      	ldr	r3, [pc, #120]	@ (8001a38 <USART6_INIT+0xa0>)
 80019c0:	681b      	ldr	r3, [r3, #0]
 80019c2:	4a1d      	ldr	r2, [pc, #116]	@ (8001a38 <USART6_INIT+0xa0>)
 80019c4:	f043 0320 	orr.w	r3, r3, #32
 80019c8:	6013      	str	r3, [r2, #0]
	GPIO_Enable(GPIO_PORT_C);
 80019ca:	2002      	movs	r0, #2
 80019cc:	f7ff fb0c 	bl	8000fe8 <GPIO_Enable>
	*GPIOC_MODER= (*GPIOC_MODER & GPIO_MOD_ClearMask) | GPIO_MOD_Mask;
 80019d0:	697b      	ldr	r3, [r7, #20]
 80019d2:	681a      	ldr	r2, [r3, #0]
 80019d4:	68fb      	ldr	r3, [r7, #12]
 80019d6:	401a      	ands	r2, r3
 80019d8:	693b      	ldr	r3, [r7, #16]
 80019da:	431a      	orrs	r2, r3
 80019dc:	697b      	ldr	r3, [r7, #20]
 80019de:	601a      	str	r2, [r3, #0]

	*GPIOC_AFRL= (*GPIOC_AFRL & GPIO_AFRL_ClearMask) | GPIO_AFRL_Mask;
 80019e0:	68bb      	ldr	r3, [r7, #8]
 80019e2:	681a      	ldr	r2, [r3, #0]
 80019e4:	683b      	ldr	r3, [r7, #0]
 80019e6:	401a      	ands	r2, r3
 80019e8:	687b      	ldr	r3, [r7, #4]
 80019ea:	431a      	orrs	r2, r3
 80019ec:	68bb      	ldr	r3, [r7, #8]
 80019ee:	601a      	str	r2, [r3, #0]

	*USART6_CR1 = (1U<<13); //set UE bit =1 Enable ,M bit =0 1S 8D nST  ;
 80019f0:	4b12      	ldr	r3, [pc, #72]	@ (8001a3c <USART6_INIT+0xa4>)
 80019f2:	f44f 5200 	mov.w	r2, #8192	@ 0x2000
 80019f6:	601a      	str	r2, [r3, #0]

	*USART6_CR2&= ~(3U<<12); // 1 STOP bits
 80019f8:	4b11      	ldr	r3, [pc, #68]	@ (8001a40 <USART6_INIT+0xa8>)
 80019fa:	681b      	ldr	r3, [r3, #0]
 80019fc:	4a10      	ldr	r2, [pc, #64]	@ (8001a40 <USART6_INIT+0xa8>)
 80019fe:	f423 5340 	bic.w	r3, r3, #12288	@ 0x3000
 8001a02:	6013      	str	r3, [r2, #0]

	uart_set_baud(USART6_BRR, USART6_CR1, 115200);
 8001a04:	f44f 32e1 	mov.w	r2, #115200	@ 0x1c200
 8001a08:	490c      	ldr	r1, [pc, #48]	@ (8001a3c <USART6_INIT+0xa4>)
 8001a0a:	480e      	ldr	r0, [pc, #56]	@ (8001a44 <USART6_INIT+0xac>)
 8001a0c:	f000 f876 	bl	8001afc <uart_set_baud>

	*USART6_CR1 |=(1U<<3); //SET TE bit == TX ON
 8001a10:	4b0a      	ldr	r3, [pc, #40]	@ (8001a3c <USART6_INIT+0xa4>)
 8001a12:	681b      	ldr	r3, [r3, #0]
 8001a14:	4a09      	ldr	r2, [pc, #36]	@ (8001a3c <USART6_INIT+0xa4>)
 8001a16:	f043 0308 	orr.w	r3, r3, #8
 8001a1a:	6013      	str	r3, [r2, #0]

	*USART6_CR1 |=(1U<<2); //SET RE bit == RX ON
 8001a1c:	4b07      	ldr	r3, [pc, #28]	@ (8001a3c <USART6_INIT+0xa4>)
 8001a1e:	681b      	ldr	r3, [r3, #0]
 8001a20:	4a06      	ldr	r2, [pc, #24]	@ (8001a3c <USART6_INIT+0xa4>)
 8001a22:	f043 0304 	orr.w	r3, r3, #4
 8001a26:	6013      	str	r3, [r2, #0]
}
 8001a28:	bf00      	nop
 8001a2a:	3718      	adds	r7, #24
 8001a2c:	46bd      	mov	sp, r7
 8001a2e:	bd80      	pop	{r7, pc}
 8001a30:	40020800 	.word	0x40020800
 8001a34:	40020820 	.word	0x40020820
 8001a38:	40023844 	.word	0x40023844
 8001a3c:	4001140c 	.word	0x4001140c
 8001a40:	40011410 	.word	0x40011410
 8001a44:	40011408 	.word	0x40011408

08001a48 <uart_putc>:

int uart_putc(uint8_t msg){
 8001a48:	b480      	push	{r7}
 8001a4a:	b083      	sub	sp, #12
 8001a4c:	af00      	add	r7, sp, #0
 8001a4e:	4603      	mov	r3, r0
 8001a50:	71fb      	strb	r3, [r7, #7]
	while((*USART6_SR & (1U << 7)) == 0U); //TXE
 8001a52:	bf00      	nop
 8001a54:	4b0b      	ldr	r3, [pc, #44]	@ (8001a84 <uart_putc+0x3c>)
 8001a56:	681b      	ldr	r3, [r3, #0]
 8001a58:	f003 0380 	and.w	r3, r3, #128	@ 0x80
 8001a5c:	2b00      	cmp	r3, #0
 8001a5e:	d0f9      	beq.n	8001a54 <uart_putc+0xc>

	*USART6_DR=msg;
 8001a60:	4a09      	ldr	r2, [pc, #36]	@ (8001a88 <uart_putc+0x40>)
 8001a62:	79fb      	ldrb	r3, [r7, #7]
 8001a64:	6013      	str	r3, [r2, #0]

	while((*USART6_SR & (1U << 6)) == 0U); //TC
 8001a66:	bf00      	nop
 8001a68:	4b06      	ldr	r3, [pc, #24]	@ (8001a84 <uart_putc+0x3c>)
 8001a6a:	681b      	ldr	r3, [r3, #0]
 8001a6c:	f003 0340 	and.w	r3, r3, #64	@ 0x40
 8001a70:	2b00      	cmp	r3, #0
 8001a72:	d0f9      	beq.n	8001a68 <uart_putc+0x20>

	return 0;
 8001a74:	2300      	movs	r3, #0
}
 8001a76:	4618      	mov	r0, r3
 8001a78:	370c      	adds	r7, #12
 8001a7a:	46bd      	mov	sp, r7
 8001a7c:	f85d 7b04 	ldr.w	r7, [sp], #4
 8001a80:	4770      	bx	lr
 8001a82:	bf00      	nop
 8001a84:	40011400 	.word	0x40011400
 8001a88:	40011404 	.word	0x40011404

08001a8c <uart_puts>:

int uart_puts(const char *msg){
 8001a8c:	b480      	push	{r7}
 8001a8e:	b083      	sub	sp, #12
 8001a90:	af00      	add	r7, sp, #0
 8001a92:	6078      	str	r0, [r7, #4]

	while (*msg != '\0') {
 8001a94:	e01b      	b.n	8001ace <uart_puts+0x42>
		if (*msg == '\n') {
 8001a96:	687b      	ldr	r3, [r7, #4]
 8001a98:	781b      	ldrb	r3, [r3, #0]
 8001a9a:	2b0a      	cmp	r3, #10
 8001a9c:	d109      	bne.n	8001ab2 <uart_puts+0x26>
			while ((*USART6_SR & (1U << 7)) == 0U);
 8001a9e:	bf00      	nop
 8001aa0:	4b14      	ldr	r3, [pc, #80]	@ (8001af4 <uart_puts+0x68>)
 8001aa2:	681b      	ldr	r3, [r3, #0]
 8001aa4:	f003 0380 	and.w	r3, r3, #128	@ 0x80
 8001aa8:	2b00      	cmp	r3, #0
 8001aaa:	d0f9      	beq.n	8001aa0 <uart_puts+0x14>
			*USART6_DR = '\r';
 8001aac:	4b12      	ldr	r3, [pc, #72]	@ (8001af8 <uart_puts+0x6c>)
 8001aae:	220d      	movs	r2, #13
 8001ab0:	601a      	str	r2, [r3, #0]
		}
		while ((*USART6_SR & (1U << 7)) == 0U);
 8001ab2:	bf00      	nop
 8001ab4:	4b0f      	ldr	r3, [pc, #60]	@ (8001af4 <uart_puts+0x68>)
 8001ab6:	681b      	ldr	r3, [r3, #0]
 8001ab8:	f003 0380 	and.w	r3, r3, #128	@ 0x80
 8001abc:	2b00      	cmp	r3, #0
 8001abe:	d0f9      	beq.n	8001ab4 <uart_puts+0x28>
		*USART6_DR = *msg;
 8001ac0:	687b      	ldr	r3, [r7, #4]
 8001ac2:	781a      	ldrb	r2, [r3, #0]
 8001ac4:	4b0c      	ldr	r3, [pc, #48]	@ (8001af8 <uart_puts+0x6c>)
 8001ac6:	601a      	str	r2, [r3, #0]

		msg++;
 8001ac8:	687b      	ldr	r3, [r7, #4]
 8001aca:	3301      	adds	r3, #1
 8001acc:	607b      	str	r3, [r7, #4]
	while (*msg != '\0') {
 8001ace:	687b      	ldr	r3, [r7, #4]
 8001ad0:	781b      	ldrb	r3, [r3, #0]
 8001ad2:	2b00      	cmp	r3, #0
 8001ad4:	d1df      	bne.n	8001a96 <uart_puts+0xa>
	}

	while((*USART6_SR & (1U << 6)) == 0U);
 8001ad6:	bf00      	nop
 8001ad8:	4b06      	ldr	r3, [pc, #24]	@ (8001af4 <uart_puts+0x68>)
 8001ada:	681b      	ldr	r3, [r3, #0]
 8001adc:	f003 0340 	and.w	r3, r3, #64	@ 0x40
 8001ae0:	2b00      	cmp	r3, #0
 8001ae2:	d0f9      	beq.n	8001ad8 <uart_puts+0x4c>

	return 0;
 8001ae4:	2300      	movs	r3, #0

}
 8001ae6:	4618      	mov	r0, r3
 8001ae8:	370c      	adds	r7, #12
 8001aea:	46bd      	mov	sp, r7
 8001aec:	f85d 7b04 	ldr.w	r7, [sp], #4
 8001af0:	4770      	bx	lr
 8001af2:	bf00      	nop
 8001af4:	40011400 	.word	0x40011400
 8001af8:	40011404 	.word	0x40011404

08001afc <uart_set_baud>:
}

// USART1,6 APB2 else APB1
int uart_set_baud(volatile uint32_t *brr_reg,
                  volatile uint32_t *cr1_reg,
                  uint32_t baud){
 8001afc:	b580      	push	{r7, lr}
 8001afe:	b08c      	sub	sp, #48	@ 0x30
 8001b00:	af00      	add	r7, sp, #0
 8001b02:	60f8      	str	r0, [r7, #12]
 8001b04:	60b9      	str	r1, [r7, #8]
 8001b06:	607a      	str	r2, [r7, #4]

	uint32_t fck=get_pclk2();
 8001b08:	f7fe fcae 	bl	8000468 <get_pclk2>
 8001b0c:	4603      	mov	r3, r0
 8001b0e:	62fb      	str	r3, [r7, #44]	@ 0x2c

	uint32_t over8 = ((*cr1_reg >> 15U) & 0x1U);
 8001b10:	68bb      	ldr	r3, [r7, #8]
 8001b12:	681b      	ldr	r3, [r3, #0]
 8001b14:	0bdb      	lsrs	r3, r3, #15
 8001b16:	f003 0301 	and.w	r3, r3, #1
 8001b1a:	62bb      	str	r3, [r7, #40]	@ 0x28

	    if (over8 == 0U) {
 8001b1c:	6abb      	ldr	r3, [r7, #40]	@ 0x28
 8001b1e:	2b00      	cmp	r3, #0
 8001b20:	d117      	bne.n	8001b52 <uart_set_baud+0x56>
	        // oversampling by 16
	        uint32_t usartdiv16 = (fck + (baud / 2U)) / baud;  // USARTDIV*16+rounded
 8001b22:	687b      	ldr	r3, [r7, #4]
 8001b24:	085a      	lsrs	r2, r3, #1
 8001b26:	6afb      	ldr	r3, [r7, #44]	@ 0x2c
 8001b28:	441a      	add	r2, r3
 8001b2a:	687b      	ldr	r3, [r7, #4]
 8001b2c:	fbb2 f3f3 	udiv	r3, r2, r3
 8001b30:	61bb      	str	r3, [r7, #24]
	        uint32_t mantissa   = usartdiv16 / 16U;
 8001b32:	69bb      	ldr	r3, [r7, #24]
 8001b34:	091b      	lsrs	r3, r3, #4
 8001b36:	617b      	str	r3, [r7, #20]
	        uint32_t fraction   = usartdiv16 % 16U;
 8001b38:	69bb      	ldr	r3, [r7, #24]
 8001b3a:	f003 030f 	and.w	r3, r3, #15
 8001b3e:	613b      	str	r3, [r7, #16]
	        *brr_reg = (mantissa << 4U) | (fraction & 0xFU);
 8001b40:	697b      	ldr	r3, [r7, #20]
 8001b42:	011a      	lsls	r2, r3, #4
 8001b44:	693b      	ldr	r3, [r7, #16]
 8001b46:	f003 030f 	and.w	r3, r3, #15
 8001b4a:	431a      	orrs	r2, r3
 8001b4c:	68fb      	ldr	r3, [r7, #12]
 8001b4e:	601a      	str	r2, [r3, #0]
 8001b50:	e016      	b.n	8001b80 <uart_set_baud+0x84>
	    } else {
	        // oversampling by 8
	        uint32_t usartdiv8 = (fck + (baud / 2U)) / baud;   // USARTDIV*8+rounded
 8001b52:	687b      	ldr	r3, [r7, #4]
 8001b54:	085a      	lsrs	r2, r3, #1
 8001b56:	6afb      	ldr	r3, [r7, #44]	@ 0x2c
 8001b58:	441a      	add	r2, r3
 8001b5a:	687b      	ldr	r3, [r7, #4]
 8001b5c:	fbb2 f3f3 	udiv	r3, r2, r3
 8001b60:	627b      	str	r3, [r7, #36]	@ 0x24
	        uint32_t mantissa  = usartdiv8 / 8U;
 8001b62:	6a7b      	ldr	r3, [r7, #36]	@ 0x24
 8001b64:	08db      	lsrs	r3, r3, #3
 8001b66:	623b      	str	r3, [r7, #32]
	        uint32_t fraction  = usartdiv8 % 8U;
 8001b68:	6a7b      	ldr	r3, [r7, #36]	@ 0x24
 8001b6a:	f003 0307 	and.w	r3, r3, #7
 8001b6e:	61fb      	str	r3, [r7, #28]

	        *brr_reg = (mantissa << 4U) | (fraction & 0x7U);
 8001b70:	6a3b      	ldr	r3, [r7, #32]
 8001b72:	011a      	lsls	r2, r3, #4
 8001b74:	69fb      	ldr	r3, [r7, #28]
 8001b76:	f003 0307 	and.w	r3, r3, #7
 8001b7a:	431a      	orrs	r2, r3
 8001b7c:	68fb      	ldr	r3, [r7, #12]
 8001b7e:	601a      	str	r2, [r3, #0]
	    }


	return 0;
 8001b80:	2300      	movs	r3, #0
}
 8001b82:	4618      	mov	r0, r3
 8001b84:	3730      	adds	r7, #48	@ 0x30
 8001b86:	46bd      	mov	sp, r7
 8001b88:	bd80      	pop	{r7, pc}

08001b8a <uart_put_hex32>:

void uart_put_hex32(uint32_t value)
{
 8001b8a:	b580      	push	{r7, lr}
 8001b8c:	b086      	sub	sp, #24
 8001b8e:	af00      	add	r7, sp, #0
 8001b90:	6078      	str	r0, [r7, #4]
    for (int i = 28; i >= 0; i -= 4) {
 8001b92:	231c      	movs	r3, #28
 8001b94:	617b      	str	r3, [r7, #20]
 8001b96:	e01a      	b.n	8001bce <uart_put_hex32+0x44>
        uint32_t n = (value >> i) & 0xFU;
 8001b98:	687a      	ldr	r2, [r7, #4]
 8001b9a:	697b      	ldr	r3, [r7, #20]
 8001b9c:	fa22 f303 	lsr.w	r3, r2, r3
 8001ba0:	f003 030f 	and.w	r3, r3, #15
 8001ba4:	613b      	str	r3, [r7, #16]
        uint8_t output = (n < 10) ? (uint8_t)('0' + n) : (uint8_t)('A' + (n - 10));
 8001ba6:	693b      	ldr	r3, [r7, #16]
 8001ba8:	2b09      	cmp	r3, #9
 8001baa:	d804      	bhi.n	8001bb6 <uart_put_hex32+0x2c>
 8001bac:	693b      	ldr	r3, [r7, #16]
 8001bae:	b2db      	uxtb	r3, r3
 8001bb0:	3330      	adds	r3, #48	@ 0x30
 8001bb2:	b2db      	uxtb	r3, r3
 8001bb4:	e003      	b.n	8001bbe <uart_put_hex32+0x34>
 8001bb6:	693b      	ldr	r3, [r7, #16]
 8001bb8:	b2db      	uxtb	r3, r3
 8001bba:	3337      	adds	r3, #55	@ 0x37
 8001bbc:	b2db      	uxtb	r3, r3
 8001bbe:	73fb      	strb	r3, [r7, #15]
        uart_putc(output);
 8001bc0:	7bfb      	ldrb	r3, [r7, #15]
 8001bc2:	4618      	mov	r0, r3
 8001bc4:	f7ff ff40 	bl	8001a48 <uart_putc>
    for (int i = 28; i >= 0; i -= 4) {
 8001bc8:	697b      	ldr	r3, [r7, #20]
 8001bca:	3b04      	subs	r3, #4
 8001bcc:	617b      	str	r3, [r7, #20]
 8001bce:	697b      	ldr	r3, [r7, #20]
 8001bd0:	2b00      	cmp	r3, #0
 8001bd2:	dae1      	bge.n	8001b98 <uart_put_hex32+0xe>
    }
}
 8001bd4:	bf00      	nop
 8001bd6:	bf00      	nop
 8001bd8:	3718      	adds	r7, #24
 8001bda:	46bd      	mov	sp, r7
 8001bdc:	bd80      	pop	{r7, pc}

08001bde <memcmp>:
 8001bde:	b510      	push	{r4, lr}
 8001be0:	3901      	subs	r1, #1
 8001be2:	4402      	add	r2, r0
 8001be4:	4290      	cmp	r0, r2
 8001be6:	d101      	bne.n	8001bec <memcmp+0xe>
 8001be8:	2000      	movs	r0, #0
 8001bea:	e005      	b.n	8001bf8 <memcmp+0x1a>
 8001bec:	7803      	ldrb	r3, [r0, #0]
 8001bee:	f811 4f01 	ldrb.w	r4, [r1, #1]!
 8001bf2:	42a3      	cmp	r3, r4
 8001bf4:	d001      	beq.n	8001bfa <memcmp+0x1c>
 8001bf6:	1b18      	subs	r0, r3, r4
 8001bf8:	bd10      	pop	{r4, pc}
 8001bfa:	3001      	adds	r0, #1
 8001bfc:	e7f2      	b.n	8001be4 <memcmp+0x6>

08001bfe <memset>:
 8001bfe:	4402      	add	r2, r0
 8001c00:	4603      	mov	r3, r0
 8001c02:	4293      	cmp	r3, r2
 8001c04:	d100      	bne.n	8001c08 <memset+0xa>
 8001c06:	4770      	bx	lr
 8001c08:	f803 1b01 	strb.w	r1, [r3], #1
 8001c0c:	e7f9      	b.n	8001c02 <memset+0x4>
	...

08001c10 <__libc_init_array>:
 8001c10:	b570      	push	{r4, r5, r6, lr}
 8001c12:	4d0d      	ldr	r5, [pc, #52]	@ (8001c48 <__libc_init_array+0x38>)
 8001c14:	4c0d      	ldr	r4, [pc, #52]	@ (8001c4c <__libc_init_array+0x3c>)
 8001c16:	1b64      	subs	r4, r4, r5
 8001c18:	10a4      	asrs	r4, r4, #2
 8001c1a:	2600      	movs	r6, #0
 8001c1c:	42a6      	cmp	r6, r4
 8001c1e:	d109      	bne.n	8001c34 <__libc_init_array+0x24>
 8001c20:	4d0b      	ldr	r5, [pc, #44]	@ (8001c50 <__libc_init_array+0x40>)
 8001c22:	4c0c      	ldr	r4, [pc, #48]	@ (8001c54 <__libc_init_array+0x44>)
 8001c24:	f000 f818 	bl	8001c58 <_init>
 8001c28:	1b64      	subs	r4, r4, r5
 8001c2a:	10a4      	asrs	r4, r4, #2
 8001c2c:	2600      	movs	r6, #0
 8001c2e:	42a6      	cmp	r6, r4
 8001c30:	d105      	bne.n	8001c3e <__libc_init_array+0x2e>
 8001c32:	bd70      	pop	{r4, r5, r6, pc}
 8001c34:	f855 3b04 	ldr.w	r3, [r5], #4
 8001c38:	4798      	blx	r3
 8001c3a:	3601      	adds	r6, #1
 8001c3c:	e7ee      	b.n	8001c1c <__libc_init_array+0xc>
 8001c3e:	f855 3b04 	ldr.w	r3, [r5], #4
 8001c42:	4798      	blx	r3
 8001c44:	3601      	adds	r6, #1
 8001c46:	e7f2      	b.n	8001c2e <__libc_init_array+0x1e>
 8001c48:	08001da8 	.word	0x08001da8
 8001c4c:	08001da8 	.word	0x08001da8
 8001c50:	08001da8 	.word	0x08001da8
 8001c54:	08001dac 	.word	0x08001dac

08001c58 <_init>:
 8001c58:	b5f8      	push	{r3, r4, r5, r6, r7, lr}
 8001c5a:	bf00      	nop
 8001c5c:	bcf8      	pop	{r3, r4, r5, r6, r7}
 8001c5e:	bc08      	pop	{r3}
 8001c60:	469e      	mov	lr, r3
 8001c62:	4770      	bx	lr

08001c64 <_fini>:
 8001c64:	b5f8      	push	{r3, r4, r5, r6, r7, lr}
 8001c66:	bf00      	nop
 8001c68:	bcf8      	pop	{r3, r4, r5, r6, r7}
 8001c6a:	bc08      	pop	{r3}
 8001c6c:	469e      	mov	lr, r3
 8001c6e:	4770      	bx	lr
