
no-codegen.elf:     file format elf32-littlearm

Sections:
Idx Name          Size      VMA       LMA       File off  Algn
  0 .isr_vector   000001ac  08010000  08010000  00001000  2**0
                  CONTENTS, ALLOC, LOAD, READONLY, DATA
  1 .text         00001b80  080101ac  080101ac  000011ac  2**2
                  CONTENTS, ALLOC, LOAD, READONLY, CODE
  2 .rodata       00000030  08011d2c  08011d2c  00002d2c  2**2
                  CONTENTS, ALLOC, LOAD, READONLY, DATA
  3 .ARM.extab    00000000  08011d5c  08011d5c  00003010  2**0
                  CONTENTS, READONLY
  4 .ARM          00000000  08011d5c  08011d5c  00003010  2**0
                  CONTENTS, READONLY
  5 .preinit_array 00000000  08011d5c  08011d5c  00003010  2**0
                  CONTENTS, ALLOC, LOAD, DATA
  6 .init_array   00000004  08011d5c  08011d5c  00002d5c  2**2
                  CONTENTS, ALLOC, LOAD, READONLY, DATA
  7 .fini_array   00000004  08011d60  08011d60  00002d60  2**2
                  CONTENTS, ALLOC, LOAD, READONLY, DATA
  8 .data         00000010  20000000  08011d64  00003000  2**2
                  CONTENTS, ALLOC, LOAD, DATA
  9 .ccmram       00000000  10000000  10000000  00003010  2**0
                  CONTENTS
 10 .bss          0000002c  20000010  20000010  00003010  2**2
                  ALLOC
 11 ._user_heap_stack 00000604  2000003c  2000003c  00003010  2**0
                  ALLOC
 12 .noinit.crash 00000040  2002ff00  2002ff00  00003f00  2**2
                  ALLOC
 13 .noinit.crash 00000000  2002ff40  2002ff40  00000000  2**0
                  ALLOC
 14 .ARM.attributes 00000030  00000000  00000000  00003010  2**0
                  CONTENTS, READONLY
 15 .debug_info   00002b07  00000000  00000000  00003040  2**0
                  CONTENTS, READONLY, DEBUGGING, OCTETS
 16 .debug_abbrev 00001124  00000000  00000000  00005b47  2**0
                  CONTENTS, READONLY, DEBUGGING, OCTETS
 17 .debug_aranges 000003b8  00000000  00000000  00006c70  2**3
                  CONTENTS, READONLY, DEBUGGING, OCTETS
 18 .debug_rnglists 00000294  00000000  00000000  00007028  2**0
                  CONTENTS, READONLY, DEBUGGING, OCTETS
 19 .debug_macro  0001b5b1  00000000  00000000  000072bc  2**0
                  CONTENTS, READONLY, DEBUGGING, OCTETS
 20 .debug_line   0000536b  00000000  00000000  0002286d  2**0
                  CONTENTS, READONLY, DEBUGGING, OCTETS
 21 .debug_str    0009989d  00000000  00000000  00027bd8  2**0
                  CONTENTS, READONLY, DEBUGGING, OCTETS
 22 .comment      00000043  00000000  00000000  000c1475  2**0
                  CONTENTS, READONLY
 23 .debug_frame  00000b9c  00000000  00000000  000c14b8  2**2
                  CONTENTS, READONLY, DEBUGGING, OCTETS
 24 .debug_line_str 00000054  00000000  00000000  000c2054  2**0
                  CONTENTS, READONLY, DEBUGGING, OCTETS

Disassembly of section .text:

080101ac <__do_global_dtors_aux>:
 80101ac:	b510      	push	{r4, lr}
 80101ae:	4c05      	ldr	r4, [pc, #20]	@ (80101c4 <__do_global_dtors_aux+0x18>)
 80101b0:	7823      	ldrb	r3, [r4, #0]
 80101b2:	b933      	cbnz	r3, 80101c2 <__do_global_dtors_aux+0x16>
 80101b4:	4b04      	ldr	r3, [pc, #16]	@ (80101c8 <__do_global_dtors_aux+0x1c>)
 80101b6:	b113      	cbz	r3, 80101be <__do_global_dtors_aux+0x12>
 80101b8:	4804      	ldr	r0, [pc, #16]	@ (80101cc <__do_global_dtors_aux+0x20>)
 80101ba:	f3af 8000 	nop.w
 80101be:	2301      	movs	r3, #1
 80101c0:	7023      	strb	r3, [r4, #0]
 80101c2:	bd10      	pop	{r4, pc}
 80101c4:	20000010 	.word	0x20000010
 80101c8:	00000000 	.word	0x00000000
 80101cc:	08011d14 	.word	0x08011d14

080101d0 <frame_dummy>:
 80101d0:	b508      	push	{r3, lr}
 80101d2:	4b03      	ldr	r3, [pc, #12]	@ (80101e0 <frame_dummy+0x10>)
 80101d4:	b11b      	cbz	r3, 80101de <frame_dummy+0xe>
 80101d6:	4903      	ldr	r1, [pc, #12]	@ (80101e4 <frame_dummy+0x14>)
 80101d8:	4803      	ldr	r0, [pc, #12]	@ (80101e8 <frame_dummy+0x18>)
 80101da:	f3af 8000 	nop.w
 80101de:	bd08      	pop	{r3, pc}
 80101e0:	00000000 	.word	0x00000000
 80101e4:	20000014 	.word	0x20000014
 80101e8:	08011d14 	.word	0x08011d14

080101ec <main>:
uint8_t tt[2]={0x9a,'\0'};


//	fault_test_invstate();

int main(void){
 80101ec:	b580      	push	{r7, lr}
 80101ee:	b084      	sub	sp, #16
 80101f0:	af00      	add	r7, sp, #0
  \details Enables IRQ interrupts by clearing special-purpose register PRIMASK.
           Can only be executed in Privileged modes.
 */
__STATIC_FORCEINLINE void __enable_irq(void)
{
  __ASM volatile ("cpsie i" : : : "memory");
 80101f2:	b662      	cpsie	i
}
 80101f4:	bf00      	nop
	uint32_t ff,dd;
	uint8_t garbage;

	__enable_irq();
	clock_update();
 80101f6:	f000 f8db 	bl	80103b0 <clock_update>

	sys_init(1000);
 80101fa:	f44f 707a 	mov.w	r0, #1000	@ 0x3e8
 80101fe:	f001 fabd 	bl	801177c <sys_init>
	USART6_INIT();
 8010202:	f001 fc83 	bl	8011b0c <USART6_INIT>
	uart_puts(msg);
 8010206:	4821      	ldr	r0, [pc, #132]	@ (801028c <main+0xa0>)
 8010208:	f001 fcd8 	bl	8011bbc <uart_puts>
	spi4_init();
 801020c:	f001 f894 	bl	8011338 <spi4_init>
	spi4_txrx(&garbage,tt,2);
 8010210:	1dfb      	adds	r3, r7, #7
 8010212:	2202      	movs	r2, #2
 8010214:	491e      	ldr	r1, [pc, #120]	@ (8010290 <main+0xa4>)
 8010216:	4618      	mov	r0, r3
 8010218:	f001 f904 	bl	8011424 <spi4_txrx>

	i2c1_init(0);
 801021c:	2000      	movs	r0, #0
 801021e:	f000 fc47 	bl	8010ab0 <i2c1_init>
	lcd_init();
 8010222:	f001 f824 	bl	801126e <lcd_init>
	lcd_set_cursor(0, 0);
 8010226:	2100      	movs	r1, #0
 8010228:	2000      	movs	r0, #0
 801022a:	f001 f852 	bl	80112d2 <lcd_set_cursor>
	lcd_puts(msg);
 801022e:	4817      	ldr	r0, [pc, #92]	@ (801028c <main+0xa0>)
 8010230:	f001 f86c 	bl	801130c <lcd_puts>


    tim2_pwm_output();
 8010234:	f001 fac2 	bl	80117bc <tim2_pwm_output>
    tim5_pwm_capture();
 8010238:	f001 fb22 	bl	8011880 <tim5_pwm_capture>
    tim5_freq_duty(&ff,&dd,1);
 801023c:	f107 0108 	add.w	r1, r7, #8
 8010240:	f107 030c 	add.w	r3, r7, #12
 8010244:	2201      	movs	r2, #1
 8010246:	4618      	mov	r0, r3
 8010248:	f001 fbce 	bl	80119e8 <tim5_freq_duty>

    delay(1000);
 801024c:	f44f 707a 	mov.w	r0, #1000	@ 0x3e8
 8010250:	f001 fc3a 	bl	8011ac8 <delay>


    //fault_test_invstate();

	eestate_confirm_ok();
 8010254:	f000 fb3a 	bl	80108cc <eestate_confirm_ok>
	while(1){

		led_off(blue);
 8010258:	2007      	movs	r0, #7
 801025a:	f000 f847 	bl	80102ec <led_off>
		GPIO_Write(GPIO_PORT_B,10,0);
 801025e:	2200      	movs	r2, #0
 8010260:	210a      	movs	r1, #10
 8010262:	2001      	movs	r0, #1
 8010264:	f000 fb68 	bl	8010938 <GPIO_Write>
		delay(1000);
 8010268:	f44f 707a 	mov.w	r0, #1000	@ 0x3e8
 801026c:	f001 fc2c 	bl	8011ac8 <delay>

		led_on(blue);
 8010270:	2007      	movs	r0, #7
 8010272:	f000 f80f 	bl	8010294 <led_on>
		GPIO_Write(GPIO_PORT_B,10,1);
 8010276:	2201      	movs	r2, #1
 8010278:	210a      	movs	r1, #10
 801027a:	2001      	movs	r0, #1
 801027c:	f000 fb5c 	bl	8010938 <GPIO_Write>
		delay(1000);
 8010280:	f44f 707a 	mov.w	r0, #1000	@ 0x3e8
 8010284:	f001 fc20 	bl	8011ac8 <delay>
		led_off(blue);
 8010288:	bf00      	nop
 801028a:	e7e5      	b.n	8010258 <main+0x6c>
 801028c:	20000000 	.word	0x20000000
 8010290:	20000008 	.word	0x20000008

08010294 <led_on>:
}




void led_on(led_pin num){
 8010294:	b580      	push	{r7, lr}
 8010296:	b084      	sub	sp, #16
 8010298:	af00      	add	r7, sp, #0
 801029a:	4603      	mov	r3, r0
 801029c:	71fb      	strb	r3, [r7, #7]
	//PB7 PC13 PB14  LD1,2,3
	uint32_t const GPIO_MOD_Mask      = (0x1U << (2U * num));
 801029e:	79fb      	ldrb	r3, [r7, #7]
 80102a0:	005b      	lsls	r3, r3, #1
 80102a2:	2201      	movs	r2, #1
 80102a4:	fa02 f303 	lsl.w	r3, r2, r3
 80102a8:	60fb      	str	r3, [r7, #12]
	uint32_t const GPIO_MOD_ClearMask = ~(0x3U << (2U * num));
 80102aa:	79fb      	ldrb	r3, [r7, #7]
 80102ac:	005b      	lsls	r3, r3, #1
 80102ae:	2203      	movs	r2, #3
 80102b0:	fa02 f303 	lsl.w	r3, r2, r3
 80102b4:	43db      	mvns	r3, r3
 80102b6:	60bb      	str	r3, [r7, #8]

	GPIO_Enable(GPIO_PORT_B);
 80102b8:	2001      	movs	r0, #1
 80102ba:	f000 fb21 	bl	8010900 <GPIO_Enable>

	*GPIOB_MODER_LED = (*GPIOB_MODER_LED & GPIO_MOD_ClearMask) | GPIO_MOD_Mask;
 80102be:	4b09      	ldr	r3, [pc, #36]	@ (80102e4 <led_on+0x50>)
 80102c0:	681a      	ldr	r2, [r3, #0]
 80102c2:	68bb      	ldr	r3, [r7, #8]
 80102c4:	401a      	ands	r2, r3
 80102c6:	4907      	ldr	r1, [pc, #28]	@ (80102e4 <led_on+0x50>)
 80102c8:	68fb      	ldr	r3, [r7, #12]
 80102ca:	4313      	orrs	r3, r2
 80102cc:	600b      	str	r3, [r1, #0]

	*GPIOB_BSRR_LED = (0x1U<<num);
 80102ce:	79fb      	ldrb	r3, [r7, #7]
 80102d0:	4a05      	ldr	r2, [pc, #20]	@ (80102e8 <led_on+0x54>)
 80102d2:	2101      	movs	r1, #1
 80102d4:	fa01 f303 	lsl.w	r3, r1, r3
 80102d8:	6013      	str	r3, [r2, #0]
}
 80102da:	bf00      	nop
 80102dc:	3710      	adds	r7, #16
 80102de:	46bd      	mov	sp, r7
 80102e0:	bd80      	pop	{r7, pc}
 80102e2:	bf00      	nop
 80102e4:	40020400 	.word	0x40020400
 80102e8:	40020418 	.word	0x40020418

080102ec <led_off>:

void led_off(led_pin num) {
 80102ec:	b480      	push	{r7}
 80102ee:	b083      	sub	sp, #12
 80102f0:	af00      	add	r7, sp, #0
 80102f2:	4603      	mov	r3, r0
 80102f4:	71fb      	strb	r3, [r7, #7]

*GPIOB_BSRR_LED = (0x1U << 16 + num);
 80102f6:	79fb      	ldrb	r3, [r7, #7]
 80102f8:	3310      	adds	r3, #16
 80102fa:	4a05      	ldr	r2, [pc, #20]	@ (8010310 <led_off+0x24>)
 80102fc:	2101      	movs	r1, #1
 80102fe:	fa01 f303 	lsl.w	r3, r1, r3
 8010302:	6013      	str	r3, [r2, #0]

}
 8010304:	bf00      	nop
 8010306:	370c      	adds	r7, #12
 8010308:	46bd      	mov	sp, r7
 801030a:	f85d 7b04 	ldr.w	r7, [sp], #4
 801030e:	4770      	bx	lr
 8010310:	40020418 	.word	0x40020418

08010314 <Reset_Handler>:

    .section  .text.Reset_Handler
  .weak  Reset_Handler
  .type  Reset_Handler, %function
Reset_Handler: 
  ldr   sp, =_estack       /* set stack pointer */
 8010314:	f8df d034 	ldr.w	sp, [pc, #52]	@ 801034c <LoopFillZerobss+0xe>

/* Call the clock system initialization function.*/
  bl  SystemInit   
 8010318:	f001 fa10 	bl	801173c <SystemInit>
 
/* Copy the data segment initializers from flash to SRAM */  
  ldr r0, =_sdata
 801031c:	480c      	ldr	r0, [pc, #48]	@ (8010350 <LoopFillZerobss+0x12>)
  ldr r1, =_edata
 801031e:	490d      	ldr	r1, [pc, #52]	@ (8010354 <LoopFillZerobss+0x16>)
  ldr r2, =_sidata
 8010320:	4a0d      	ldr	r2, [pc, #52]	@ (8010358 <LoopFillZerobss+0x1a>)
  movs r3, #0
 8010322:	2300      	movs	r3, #0
  b LoopCopyDataInit
 8010324:	e002      	b.n	801032c <LoopCopyDataInit>

08010326 <CopyDataInit>:

CopyDataInit:
  ldr r4, [r2, r3]
 8010326:	58d4      	ldr	r4, [r2, r3]
  str r4, [r0, r3]
 8010328:	50c4      	str	r4, [r0, r3]
  adds r3, r3, #4
 801032a:	3304      	adds	r3, #4

0801032c <LoopCopyDataInit>:

LoopCopyDataInit:
  adds r4, r0, r3
 801032c:	18c4      	adds	r4, r0, r3
  cmp r4, r1
 801032e:	428c      	cmp	r4, r1
  bcc CopyDataInit
 8010330:	d3f9      	bcc.n	8010326 <CopyDataInit>
  
/* Zero fill the bss segment. */
  ldr r2, =_sbss
 8010332:	4a0a      	ldr	r2, [pc, #40]	@ (801035c <LoopFillZerobss+0x1e>)
  ldr r4, =_ebss
 8010334:	4c0a      	ldr	r4, [pc, #40]	@ (8010360 <LoopFillZerobss+0x22>)
  movs r3, #0
 8010336:	2300      	movs	r3, #0
  b LoopFillZerobss
 8010338:	e001      	b.n	801033e <LoopFillZerobss>

0801033a <FillZerobss>:

FillZerobss:
  str  r3, [r2]
 801033a:	6013      	str	r3, [r2, #0]
  adds r2, r2, #4
 801033c:	3204      	adds	r2, #4

0801033e <LoopFillZerobss>:

LoopFillZerobss:
  cmp r2, r4
 801033e:	42a2      	cmp	r2, r4
  bcc FillZerobss
 8010340:	d3fb      	bcc.n	801033a <FillZerobss>
  
/* Call static constructors */
    bl __libc_init_array
 8010342:	f001 fcc3 	bl	8011ccc <__libc_init_array>
/* Call the application's entry point.*/
  bl  main
 8010346:	f7ff ff51 	bl	80101ec <main>
  bx  lr    
 801034a:	4770      	bx	lr
  ldr   sp, =_estack       /* set stack pointer */
 801034c:	2002ff00 	.word	0x2002ff00
  ldr r0, =_sdata
 8010350:	20000000 	.word	0x20000000
  ldr r1, =_edata
 8010354:	20000010 	.word	0x20000010
  ldr r2, =_sidata
 8010358:	08011d64 	.word	0x08011d64
  ldr r2, =_sbss
 801035c:	20000010 	.word	0x20000010
  ldr r4, =_ebss
 8010360:	2000003c 	.word	0x2000003c

08010364 <ADC_IRQHandler>:
 * @retval None       
*/
    .section  .text.Default_Handler,"ax",%progbits
Default_Handler:
Infinite_Loop:
  b  Infinite_Loop
 8010364:	e7fe      	b.n	8010364 <ADC_IRQHandler>
	...

08010368 <get_hclk>:
	};
static uint32_t j_hclk  = 0U;
static uint32_t j_pclk1 = 0U;
static uint32_t j_pclk2 = 0U;

uint32_t get_hclk(void){return j_hclk;}
 8010368:	b480      	push	{r7}
 801036a:	af00      	add	r7, sp, #0
 801036c:	4b03      	ldr	r3, [pc, #12]	@ (801037c <get_hclk+0x14>)
 801036e:	681b      	ldr	r3, [r3, #0]
 8010370:	4618      	mov	r0, r3
 8010372:	46bd      	mov	sp, r7
 8010374:	f85d 7b04 	ldr.w	r7, [sp], #4
 8010378:	4770      	bx	lr
 801037a:	bf00      	nop
 801037c:	2000002c 	.word	0x2000002c

08010380 <get_pclk1>:

uint32_t get_pclk1(void){return j_pclk1;}
 8010380:	b480      	push	{r7}
 8010382:	af00      	add	r7, sp, #0
 8010384:	4b03      	ldr	r3, [pc, #12]	@ (8010394 <get_pclk1+0x14>)
 8010386:	681b      	ldr	r3, [r3, #0]
 8010388:	4618      	mov	r0, r3
 801038a:	46bd      	mov	sp, r7
 801038c:	f85d 7b04 	ldr.w	r7, [sp], #4
 8010390:	4770      	bx	lr
 8010392:	bf00      	nop
 8010394:	20000030 	.word	0x20000030

08010398 <get_pclk2>:

uint32_t get_pclk2(void){return j_pclk2;}
 8010398:	b480      	push	{r7}
 801039a:	af00      	add	r7, sp, #0
 801039c:	4b03      	ldr	r3, [pc, #12]	@ (80103ac <get_pclk2+0x14>)
 801039e:	681b      	ldr	r3, [r3, #0]
 80103a0:	4618      	mov	r0, r3
 80103a2:	46bd      	mov	sp, r7
 80103a4:	f85d 7b04 	ldr.w	r7, [sp], #4
 80103a8:	4770      	bx	lr
 80103aa:	bf00      	nop
 80103ac:	20000034 	.word	0x20000034

080103b0 <clock_update>:
        if ((*reg & mask) == 0U) return 0;
    }
    return -1;
}

int clock_update(void) {
 80103b0:	b480      	push	{r7}
 80103b2:	b089      	sub	sp, #36	@ 0x24
 80103b4:	af00      	add	r7, sp, #0
	uint32_t num,pll_m = 0, pll_n = 0, pll_p = 0, source_clk = 0,vco=0,pll_output=0,sys_clk=0;
 80103b6:	2300      	movs	r3, #0
 80103b8:	61bb      	str	r3, [r7, #24]
 80103ba:	2300      	movs	r3, #0
 80103bc:	617b      	str	r3, [r7, #20]
 80103be:	2300      	movs	r3, #0
 80103c0:	613b      	str	r3, [r7, #16]
 80103c2:	2300      	movs	r3, #0
 80103c4:	61fb      	str	r3, [r7, #28]
 80103c6:	2300      	movs	r3, #0
 80103c8:	60fb      	str	r3, [r7, #12]
 80103ca:	2300      	movs	r3, #0
 80103cc:	60bb      	str	r3, [r7, #8]
 80103ce:	2300      	movs	r3, #0
 80103d0:	607b      	str	r3, [r7, #4]
	num=(*RCC_CFGR &(3U << 2))>>2; //00:HSI 10:HSE 10:PLL
 80103d2:	4b65      	ldr	r3, [pc, #404]	@ (8010568 <clock_update+0x1b8>)
 80103d4:	681b      	ldr	r3, [r3, #0]
 80103d6:	089b      	lsrs	r3, r3, #2
 80103d8:	f003 0303 	and.w	r3, r3, #3
 80103dc:	603b      	str	r3, [r7, #0]
	switch (num) {
 80103de:	683b      	ldr	r3, [r7, #0]
 80103e0:	2b02      	cmp	r3, #2
 80103e2:	d062      	beq.n	80104aa <clock_update+0xfa>
 80103e4:	683b      	ldr	r3, [r7, #0]
 80103e6:	2b02      	cmp	r3, #2
 80103e8:	f200 80b5 	bhi.w	8010556 <clock_update+0x1a6>
 80103ec:	683b      	ldr	r3, [r7, #0]
 80103ee:	2b00      	cmp	r3, #0
 80103f0:	d003      	beq.n	80103fa <clock_update+0x4a>
 80103f2:	683b      	ldr	r3, [r7, #0]
 80103f4:	2b01      	cmp	r3, #1
 80103f6:	d02c      	beq.n	8010452 <clock_update+0xa2>
 80103f8:	e0ad      	b.n	8010556 <clock_update+0x1a6>
	case 0:
		sys_clk= HSI_HZ
 80103fa:	4b5c      	ldr	r3, [pc, #368]	@ (801056c <clock_update+0x1bc>)
 80103fc:	607b      	str	r3, [r7, #4]
		;
		j_hclk = sys_clk / ahb_tbl[(*RCC_CFGR & (0xfU << 4U)) >> 4U];
 80103fe:	4b5a      	ldr	r3, [pc, #360]	@ (8010568 <clock_update+0x1b8>)
 8010400:	681b      	ldr	r3, [r3, #0]
 8010402:	091b      	lsrs	r3, r3, #4
 8010404:	f003 030f 	and.w	r3, r3, #15
 8010408:	4a59      	ldr	r2, [pc, #356]	@ (8010570 <clock_update+0x1c0>)
 801040a:	f832 3013 	ldrh.w	r3, [r2, r3, lsl #1]
 801040e:	461a      	mov	r2, r3
 8010410:	687b      	ldr	r3, [r7, #4]
 8010412:	fbb3 f3f2 	udiv	r3, r3, r2
 8010416:	4a57      	ldr	r2, [pc, #348]	@ (8010574 <clock_update+0x1c4>)
 8010418:	6013      	str	r3, [r2, #0]

		j_pclk1 = j_hclk / apb_tbl[(*RCC_CFGR & (7U << 10U)) >> 10U];
 801041a:	4b56      	ldr	r3, [pc, #344]	@ (8010574 <clock_update+0x1c4>)
 801041c:	681b      	ldr	r3, [r3, #0]
 801041e:	4a52      	ldr	r2, [pc, #328]	@ (8010568 <clock_update+0x1b8>)
 8010420:	6812      	ldr	r2, [r2, #0]
 8010422:	0a92      	lsrs	r2, r2, #10
 8010424:	f002 0207 	and.w	r2, r2, #7
 8010428:	4953      	ldr	r1, [pc, #332]	@ (8010578 <clock_update+0x1c8>)
 801042a:	5c8a      	ldrb	r2, [r1, r2]
 801042c:	fbb3 f3f2 	udiv	r3, r3, r2
 8010430:	4a52      	ldr	r2, [pc, #328]	@ (801057c <clock_update+0x1cc>)
 8010432:	6013      	str	r3, [r2, #0]

		j_pclk2 = j_hclk / apb_tbl[(*RCC_CFGR & (7U << 13U)) >> 13U];
 8010434:	4b4f      	ldr	r3, [pc, #316]	@ (8010574 <clock_update+0x1c4>)
 8010436:	681b      	ldr	r3, [r3, #0]
 8010438:	4a4b      	ldr	r2, [pc, #300]	@ (8010568 <clock_update+0x1b8>)
 801043a:	6812      	ldr	r2, [r2, #0]
 801043c:	0b52      	lsrs	r2, r2, #13
 801043e:	f002 0207 	and.w	r2, r2, #7
 8010442:	494d      	ldr	r1, [pc, #308]	@ (8010578 <clock_update+0x1c8>)
 8010444:	5c8a      	ldrb	r2, [r1, r2]
 8010446:	fbb3 f3f2 	udiv	r3, r3, r2
 801044a:	4a4d      	ldr	r2, [pc, #308]	@ (8010580 <clock_update+0x1d0>)
 801044c:	6013      	str	r3, [r2, #0]
		return 0;
 801044e:	2300      	movs	r3, #0
 8010450:	e083      	b.n	801055a <clock_update+0x1aa>
	case 1:
		sys_clk = HSE_HZ
 8010452:	4b4c      	ldr	r3, [pc, #304]	@ (8010584 <clock_update+0x1d4>)
 8010454:	607b      	str	r3, [r7, #4]
		;
		j_hclk = sys_clk / ahb_tbl[(*RCC_CFGR & (0xfU << 4U)) >> 4U];
 8010456:	4b44      	ldr	r3, [pc, #272]	@ (8010568 <clock_update+0x1b8>)
 8010458:	681b      	ldr	r3, [r3, #0]
 801045a:	091b      	lsrs	r3, r3, #4
 801045c:	f003 030f 	and.w	r3, r3, #15
 8010460:	4a43      	ldr	r2, [pc, #268]	@ (8010570 <clock_update+0x1c0>)
 8010462:	f832 3013 	ldrh.w	r3, [r2, r3, lsl #1]
 8010466:	461a      	mov	r2, r3
 8010468:	687b      	ldr	r3, [r7, #4]
 801046a:	fbb3 f3f2 	udiv	r3, r3, r2
 801046e:	4a41      	ldr	r2, [pc, #260]	@ (8010574 <clock_update+0x1c4>)
 8010470:	6013      	str	r3, [r2, #0]

		j_pclk1 = j_hclk / apb_tbl[(*RCC_CFGR & (7U << 10U)) >> 10U];
 8010472:	4b40      	ldr	r3, [pc, #256]	@ (8010574 <clock_update+0x1c4>)
 8010474:	681b      	ldr	r3, [r3, #0]
 8010476:	4a3c      	ldr	r2, [pc, #240]	@ (8010568 <clock_update+0x1b8>)
 8010478:	6812      	ldr	r2, [r2, #0]
 801047a:	0a92      	lsrs	r2, r2, #10
 801047c:	f002 0207 	and.w	r2, r2, #7
 8010480:	493d      	ldr	r1, [pc, #244]	@ (8010578 <clock_update+0x1c8>)
 8010482:	5c8a      	ldrb	r2, [r1, r2]
 8010484:	fbb3 f3f2 	udiv	r3, r3, r2
 8010488:	4a3c      	ldr	r2, [pc, #240]	@ (801057c <clock_update+0x1cc>)
 801048a:	6013      	str	r3, [r2, #0]

		j_pclk2 = j_hclk / apb_tbl[(*RCC_CFGR & (7U << 13U)) >> 13U];
 801048c:	4b39      	ldr	r3, [pc, #228]	@ (8010574 <clock_update+0x1c4>)
 801048e:	681b      	ldr	r3, [r3, #0]
 8010490:	4a35      	ldr	r2, [pc, #212]	@ (8010568 <clock_update+0x1b8>)
 8010492:	6812      	ldr	r2, [r2, #0]
 8010494:	0b52      	lsrs	r2, r2, #13
 8010496:	f002 0207 	and.w	r2, r2, #7
 801049a:	4937      	ldr	r1, [pc, #220]	@ (8010578 <clock_update+0x1c8>)
 801049c:	5c8a      	ldrb	r2, [r1, r2]
 801049e:	fbb3 f3f2 	udiv	r3, r3, r2
 80104a2:	4a37      	ldr	r2, [pc, #220]	@ (8010580 <clock_update+0x1d0>)
 80104a4:	6013      	str	r3, [r2, #0]

		return 0;
 80104a6:	2300      	movs	r3, #0
 80104a8:	e057      	b.n	801055a <clock_update+0x1aa>
	case 2: //PLL
		pll_m = (*RCC_PLLCFGR & 0x3fU);
 80104aa:	4b37      	ldr	r3, [pc, #220]	@ (8010588 <clock_update+0x1d8>)
 80104ac:	681b      	ldr	r3, [r3, #0]
 80104ae:	f003 033f 	and.w	r3, r3, #63	@ 0x3f
 80104b2:	61bb      	str	r3, [r7, #24]
		pll_n = (*RCC_PLLCFGR & (0x1ffU << 6U))>>6U;
 80104b4:	4b34      	ldr	r3, [pc, #208]	@ (8010588 <clock_update+0x1d8>)
 80104b6:	681b      	ldr	r3, [r3, #0]
 80104b8:	099b      	lsrs	r3, r3, #6
 80104ba:	f3c3 0308 	ubfx	r3, r3, #0, #9
 80104be:	617b      	str	r3, [r7, #20]
		pll_p = pllp_tbl[(*RCC_PLLCFGR & (0x3U << 16U))>>16U];
 80104c0:	4b31      	ldr	r3, [pc, #196]	@ (8010588 <clock_update+0x1d8>)
 80104c2:	681b      	ldr	r3, [r3, #0]
 80104c4:	0c1b      	lsrs	r3, r3, #16
 80104c6:	f003 0303 	and.w	r3, r3, #3
 80104ca:	4a30      	ldr	r2, [pc, #192]	@ (801058c <clock_update+0x1dc>)
 80104cc:	f832 3013 	ldrh.w	r3, [r2, r3, lsl #1]
 80104d0:	613b      	str	r3, [r7, #16]
		if (*RCC_PLLCFGR & (1U << 22U)){
 80104d2:	4b2d      	ldr	r3, [pc, #180]	@ (8010588 <clock_update+0x1d8>)
 80104d4:	681b      	ldr	r3, [r3, #0]
 80104d6:	f403 0380 	and.w	r3, r3, #4194304	@ 0x400000
 80104da:	2b00      	cmp	r3, #0
 80104dc:	d002      	beq.n	80104e4 <clock_update+0x134>
			source_clk = HSE_HZ;
 80104de:	4b29      	ldr	r3, [pc, #164]	@ (8010584 <clock_update+0x1d4>)
 80104e0:	61fb      	str	r3, [r7, #28]
 80104e2:	e001      	b.n	80104e8 <clock_update+0x138>
		}
		else{
			source_clk = HSI_HZ;
 80104e4:	4b21      	ldr	r3, [pc, #132]	@ (801056c <clock_update+0x1bc>)
 80104e6:	61fb      	str	r3, [r7, #28]
		}
		vco=source_clk*pll_n/pll_m;
 80104e8:	69fb      	ldr	r3, [r7, #28]
 80104ea:	697a      	ldr	r2, [r7, #20]
 80104ec:	fb03 f202 	mul.w	r2, r3, r2
 80104f0:	69bb      	ldr	r3, [r7, #24]
 80104f2:	fbb2 f3f3 	udiv	r3, r2, r3
 80104f6:	60fb      	str	r3, [r7, #12]
		pll_output=vco/pll_p;
 80104f8:	68fa      	ldr	r2, [r7, #12]
 80104fa:	693b      	ldr	r3, [r7, #16]
 80104fc:	fbb2 f3f3 	udiv	r3, r2, r3
 8010500:	60bb      	str	r3, [r7, #8]

		j_hclk=pll_output/ahb_tbl[(*RCC_CFGR&(0xfU<<4U))>>4U];
 8010502:	4b19      	ldr	r3, [pc, #100]	@ (8010568 <clock_update+0x1b8>)
 8010504:	681b      	ldr	r3, [r3, #0]
 8010506:	091b      	lsrs	r3, r3, #4
 8010508:	f003 030f 	and.w	r3, r3, #15
 801050c:	4a18      	ldr	r2, [pc, #96]	@ (8010570 <clock_update+0x1c0>)
 801050e:	f832 3013 	ldrh.w	r3, [r2, r3, lsl #1]
 8010512:	461a      	mov	r2, r3
 8010514:	68bb      	ldr	r3, [r7, #8]
 8010516:	fbb3 f3f2 	udiv	r3, r3, r2
 801051a:	4a16      	ldr	r2, [pc, #88]	@ (8010574 <clock_update+0x1c4>)
 801051c:	6013      	str	r3, [r2, #0]

		j_pclk1=j_hclk/apb_tbl[(*RCC_CFGR&(7U<<10U))>>10U];
 801051e:	4b15      	ldr	r3, [pc, #84]	@ (8010574 <clock_update+0x1c4>)
 8010520:	681b      	ldr	r3, [r3, #0]
 8010522:	4a11      	ldr	r2, [pc, #68]	@ (8010568 <clock_update+0x1b8>)
 8010524:	6812      	ldr	r2, [r2, #0]
 8010526:	0a92      	lsrs	r2, r2, #10
 8010528:	f002 0207 	and.w	r2, r2, #7
 801052c:	4912      	ldr	r1, [pc, #72]	@ (8010578 <clock_update+0x1c8>)
 801052e:	5c8a      	ldrb	r2, [r1, r2]
 8010530:	fbb3 f3f2 	udiv	r3, r3, r2
 8010534:	4a11      	ldr	r2, [pc, #68]	@ (801057c <clock_update+0x1cc>)
 8010536:	6013      	str	r3, [r2, #0]

		j_pclk2=j_hclk/apb_tbl[(*RCC_CFGR&(7U<<13U))>>13U];
 8010538:	4b0e      	ldr	r3, [pc, #56]	@ (8010574 <clock_update+0x1c4>)
 801053a:	681b      	ldr	r3, [r3, #0]
 801053c:	4a0a      	ldr	r2, [pc, #40]	@ (8010568 <clock_update+0x1b8>)
 801053e:	6812      	ldr	r2, [r2, #0]
 8010540:	0b52      	lsrs	r2, r2, #13
 8010542:	f002 0207 	and.w	r2, r2, #7
 8010546:	490c      	ldr	r1, [pc, #48]	@ (8010578 <clock_update+0x1c8>)
 8010548:	5c8a      	ldrb	r2, [r1, r2]
 801054a:	fbb3 f3f2 	udiv	r3, r3, r2
 801054e:	4a0c      	ldr	r2, [pc, #48]	@ (8010580 <clock_update+0x1d0>)
 8010550:	6013      	str	r3, [r2, #0]

		return 0;
 8010552:	2300      	movs	r3, #0
 8010554:	e001      	b.n	801055a <clock_update+0x1aa>
	default:
		return -1;
 8010556:	f04f 33ff 	mov.w	r3, #4294967295
	}
}
 801055a:	4618      	mov	r0, r3
 801055c:	3724      	adds	r7, #36	@ 0x24
 801055e:	46bd      	mov	sp, r7
 8010560:	f85d 7b04 	ldr.w	r7, [sp], #4
 8010564:	4770      	bx	lr
 8010566:	bf00      	nop
 8010568:	40023808 	.word	0x40023808
 801056c:	00f42400 	.word	0x00f42400
 8010570:	08011d34 	.word	0x08011d34
 8010574:	2000002c 	.word	0x2000002c
 8010578:	08011d2c 	.word	0x08011d2c
 801057c:	20000030 	.word	0x20000030
 8010580:	20000034 	.word	0x20000034
 8010584:	007a1200 	.word	0x007a1200
 8010588:	40023804 	.word	0x40023804
 801058c:	08011d54 	.word	0x08011d54

08010590 <calc_xor>:

extern int at24c256_read(uint16_t mem, uint8_t* out, uint16_t len);
extern int at24c256_write(uint16_t mem, const uint8_t* data, uint16_t len);

static uint32_t calc_xor(const eestate_t* s)
{
 8010590:	b480      	push	{r7}
 8010592:	b087      	sub	sp, #28
 8010594:	af00      	add	r7, sp, #0
 8010596:	6078      	str	r0, [r7, #4]
    const uint32_t* p = (const uint32_t*)s;
 8010598:	687b      	ldr	r3, [r7, #4]
 801059a:	60fb      	str	r3, [r7, #12]
    uint32_t x = 0;
 801059c:	2300      	movs	r3, #0
 801059e:	617b      	str	r3, [r7, #20]
    // -1 : eestate_t->check[xor]
    for (int i = 0; i < (EESTATE_SIZE/4 - 1); i++) x ^= p[i];
 80105a0:	2300      	movs	r3, #0
 80105a2:	613b      	str	r3, [r7, #16]
 80105a4:	e00a      	b.n	80105bc <calc_xor+0x2c>
 80105a6:	693b      	ldr	r3, [r7, #16]
 80105a8:	009b      	lsls	r3, r3, #2
 80105aa:	68fa      	ldr	r2, [r7, #12]
 80105ac:	4413      	add	r3, r2
 80105ae:	681b      	ldr	r3, [r3, #0]
 80105b0:	697a      	ldr	r2, [r7, #20]
 80105b2:	4053      	eors	r3, r2
 80105b4:	617b      	str	r3, [r7, #20]
 80105b6:	693b      	ldr	r3, [r7, #16]
 80105b8:	3301      	adds	r3, #1
 80105ba:	613b      	str	r3, [r7, #16]
 80105bc:	693b      	ldr	r3, [r7, #16]
 80105be:	2b0e      	cmp	r3, #14
 80105c0:	d9f1      	bls.n	80105a6 <calc_xor+0x16>
    return x;
 80105c2:	697b      	ldr	r3, [r7, #20]
}
 80105c4:	4618      	mov	r0, r3
 80105c6:	371c      	adds	r7, #28
 80105c8:	46bd      	mov	sp, r7
 80105ca:	f85d 7b04 	ldr.w	r7, [sp], #4
 80105ce:	4770      	bx	lr

080105d0 <is_valid>:

static int is_valid(const eestate_t* s)
{
 80105d0:	b590      	push	{r4, r7, lr}
 80105d2:	b083      	sub	sp, #12
 80105d4:	af00      	add	r7, sp, #0
 80105d6:	6078      	str	r0, [r7, #4]
    if (s->magic != EESTATE_MAGIC) return 0;
 80105d8:	687b      	ldr	r3, [r7, #4]
 80105da:	681b      	ldr	r3, [r3, #0]
 80105dc:	4a10      	ldr	r2, [pc, #64]	@ (8010620 <is_valid+0x50>)
 80105de:	4293      	cmp	r3, r2
 80105e0:	d001      	beq.n	80105e6 <is_valid+0x16>
 80105e2:	2300      	movs	r3, #0
 80105e4:	e018      	b.n	8010618 <is_valid+0x48>
    if (s->ver   != EESTATE_VER)   return 0;
 80105e6:	687b      	ldr	r3, [r7, #4]
 80105e8:	889b      	ldrh	r3, [r3, #4]
 80105ea:	b29b      	uxth	r3, r3
 80105ec:	2b01      	cmp	r3, #1
 80105ee:	d001      	beq.n	80105f4 <is_valid+0x24>
 80105f0:	2300      	movs	r3, #0
 80105f2:	e011      	b.n	8010618 <is_valid+0x48>
    if (s->size  != EESTATE_SIZE)  return 0;
 80105f4:	687b      	ldr	r3, [r7, #4]
 80105f6:	88db      	ldrh	r3, [r3, #6]
 80105f8:	b29b      	uxth	r3, r3
 80105fa:	2b40      	cmp	r3, #64	@ 0x40
 80105fc:	d001      	beq.n	8010602 <is_valid+0x32>
 80105fe:	2300      	movs	r3, #0
 8010600:	e00a      	b.n	8010618 <is_valid+0x48>
    if (s->check != calc_xor(s))   return 0;
 8010602:	687b      	ldr	r3, [r7, #4]
 8010604:	6bdc      	ldr	r4, [r3, #60]	@ 0x3c
 8010606:	6878      	ldr	r0, [r7, #4]
 8010608:	f7ff ffc2 	bl	8010590 <calc_xor>
 801060c:	4603      	mov	r3, r0
 801060e:	429c      	cmp	r4, r3
 8010610:	d001      	beq.n	8010616 <is_valid+0x46>
 8010612:	2300      	movs	r3, #0
 8010614:	e000      	b.n	8010618 <is_valid+0x48>
    return 1;
 8010616:	2301      	movs	r3, #1
}
 8010618:	4618      	mov	r0, r3
 801061a:	370c      	adds	r7, #12
 801061c:	46bd      	mov	sp, r7
 801061e:	bd90      	pop	{r4, r7, pc}
 8010620:	45535441 	.word	0x45535441

08010624 <set_default>:

static void set_default(eestate_t* s)
{
 8010624:	b580      	push	{r7, lr}
 8010626:	b082      	sub	sp, #8
 8010628:	af00      	add	r7, sp, #0
 801062a:	6078      	str	r0, [r7, #4]
    memset(s, 0, sizeof(*s));
 801062c:	2240      	movs	r2, #64	@ 0x40
 801062e:	2100      	movs	r1, #0
 8010630:	6878      	ldr	r0, [r7, #4]
 8010632:	f001 fb42 	bl	8011cba <memset>
    s->magic = EESTATE_MAGIC;
 8010636:	687b      	ldr	r3, [r7, #4]
 8010638:	2200      	movs	r2, #0
 801063a:	f042 0241 	orr.w	r2, r2, #65	@ 0x41
 801063e:	701a      	strb	r2, [r3, #0]
 8010640:	2200      	movs	r2, #0
 8010642:	f042 0254 	orr.w	r2, r2, #84	@ 0x54
 8010646:	705a      	strb	r2, [r3, #1]
 8010648:	2200      	movs	r2, #0
 801064a:	f042 0253 	orr.w	r2, r2, #83	@ 0x53
 801064e:	709a      	strb	r2, [r3, #2]
 8010650:	2200      	movs	r2, #0
 8010652:	f042 0245 	orr.w	r2, r2, #69	@ 0x45
 8010656:	70da      	strb	r2, [r3, #3]
    s->ver   = EESTATE_VER;
 8010658:	687b      	ldr	r3, [r7, #4]
 801065a:	2200      	movs	r2, #0
 801065c:	f042 0201 	orr.w	r2, r2, #1
 8010660:	711a      	strb	r2, [r3, #4]
 8010662:	2200      	movs	r2, #0
 8010664:	715a      	strb	r2, [r3, #5]
    s->size  = EESTATE_SIZE;
 8010666:	687b      	ldr	r3, [r7, #4]
 8010668:	2200      	movs	r2, #0
 801066a:	f042 0240 	orr.w	r2, r2, #64	@ 0x40
 801066e:	719a      	strb	r2, [r3, #6]
 8010670:	2200      	movs	r2, #0
 8010672:	71da      	strb	r2, [r3, #7]
    s->seq   = 0;
 8010674:	687b      	ldr	r3, [r7, #4]
 8010676:	2200      	movs	r2, #0
 8010678:	721a      	strb	r2, [r3, #8]
 801067a:	2200      	movs	r2, #0
 801067c:	725a      	strb	r2, [r3, #9]
 801067e:	2200      	movs	r2, #0
 8010680:	729a      	strb	r2, [r3, #10]
 8010682:	2200      	movs	r2, #0
 8010684:	72da      	strb	r2, [r3, #11]
    s->flags = 0;
 8010686:	687b      	ldr	r3, [r7, #4]
 8010688:	2200      	movs	r2, #0
 801068a:	731a      	strb	r2, [r3, #12]
 801068c:	2200      	movs	r2, #0
 801068e:	735a      	strb	r2, [r3, #13]
 8010690:	2200      	movs	r2, #0
 8010692:	739a      	strb	r2, [r3, #14]
 8010694:	2200      	movs	r2, #0
 8010696:	73da      	strb	r2, [r3, #15]
    s->fail_streak = 0;
 8010698:	687b      	ldr	r3, [r7, #4]
 801069a:	2200      	movs	r2, #0
 801069c:	741a      	strb	r2, [r3, #16]
 801069e:	2200      	movs	r2, #0
 80106a0:	745a      	strb	r2, [r3, #17]
    s->threshold   = 0;
 80106a2:	687b      	ldr	r3, [r7, #4]
 80106a4:	2200      	movs	r2, #0
 80106a6:	749a      	strb	r2, [r3, #18]
 80106a8:	2200      	movs	r2, #0
 80106aa:	74da      	strb	r2, [r3, #19]
    s->boot_count  = 0;
 80106ac:	687b      	ldr	r3, [r7, #4]
 80106ae:	2200      	movs	r2, #0
 80106b0:	751a      	strb	r2, [r3, #20]
 80106b2:	2200      	movs	r2, #0
 80106b4:	755a      	strb	r2, [r3, #21]
 80106b6:	2200      	movs	r2, #0
 80106b8:	759a      	strb	r2, [r3, #22]
 80106ba:	2200      	movs	r2, #0
 80106bc:	75da      	strb	r2, [r3, #23]
    s->last_crash_seq = 0;
 80106be:	687b      	ldr	r3, [r7, #4]
 80106c0:	2200      	movs	r2, #0
 80106c2:	761a      	strb	r2, [r3, #24]
 80106c4:	2200      	movs	r2, #0
 80106c6:	765a      	strb	r2, [r3, #25]
 80106c8:	2200      	movs	r2, #0
 80106ca:	769a      	strb	r2, [r3, #26]
 80106cc:	2200      	movs	r2, #0
 80106ce:	76da      	strb	r2, [r3, #27]
    s->check = calc_xor(s);
 80106d0:	6878      	ldr	r0, [r7, #4]
 80106d2:	f7ff ff5d 	bl	8010590 <calc_xor>
 80106d6:	4602      	mov	r2, r0
 80106d8:	687b      	ldr	r3, [r7, #4]
 80106da:	63da      	str	r2, [r3, #60]	@ 0x3c
}
 80106dc:	bf00      	nop
 80106de:	3708      	adds	r7, #8
 80106e0:	46bd      	mov	sp, r7
 80106e2:	bd80      	pop	{r7, pc}

080106e4 <eestate_load>:

int eestate_load(eestate_t* out)
{
 80106e4:	b5f0      	push	{r4, r5, r6, r7, lr}
 80106e6:	b0a7      	sub	sp, #156	@ 0x9c
 80106e8:	af00      	add	r7, sp, #0
 80106ea:	6078      	str	r0, [r7, #4]
    eestate_t a, b;
    int ra = at24c256_read(EESTATE_SLOT0_ADDR, (uint8_t*)&a, sizeof(a));
 80106ec:	f107 0348 	add.w	r3, r7, #72	@ 0x48
 80106f0:	2240      	movs	r2, #64	@ 0x40
 80106f2:	4619      	mov	r1, r3
 80106f4:	f44f 40ff 	mov.w	r0, #32640	@ 0x7f80
 80106f8:	f000 fcf7 	bl	80110ea <at24c256_read>
 80106fc:	f8c7 0094 	str.w	r0, [r7, #148]	@ 0x94
    int rb = at24c256_read(EESTATE_SLOT1_ADDR, (uint8_t*)&b, sizeof(b));
 8010700:	f107 0308 	add.w	r3, r7, #8
 8010704:	2240      	movs	r2, #64	@ 0x40
 8010706:	4619      	mov	r1, r3
 8010708:	f647 70c0 	movw	r0, #32704	@ 0x7fc0
 801070c:	f000 fced 	bl	80110ea <at24c256_read>
 8010710:	f8c7 0090 	str.w	r0, [r7, #144]	@ 0x90

    int va = (ra == 0) && is_valid(&a);
 8010714:	f8d7 3094 	ldr.w	r3, [r7, #148]	@ 0x94
 8010718:	2b00      	cmp	r3, #0
 801071a:	d109      	bne.n	8010730 <eestate_load+0x4c>
 801071c:	f107 0348 	add.w	r3, r7, #72	@ 0x48
 8010720:	4618      	mov	r0, r3
 8010722:	f7ff ff55 	bl	80105d0 <is_valid>
 8010726:	4603      	mov	r3, r0
 8010728:	2b00      	cmp	r3, #0
 801072a:	d001      	beq.n	8010730 <eestate_load+0x4c>
 801072c:	2301      	movs	r3, #1
 801072e:	e000      	b.n	8010732 <eestate_load+0x4e>
 8010730:	2300      	movs	r3, #0
 8010732:	f8c7 308c 	str.w	r3, [r7, #140]	@ 0x8c
    int vb = (rb == 0) && is_valid(&b);
 8010736:	f8d7 3090 	ldr.w	r3, [r7, #144]	@ 0x90
 801073a:	2b00      	cmp	r3, #0
 801073c:	d109      	bne.n	8010752 <eestate_load+0x6e>
 801073e:	f107 0308 	add.w	r3, r7, #8
 8010742:	4618      	mov	r0, r3
 8010744:	f7ff ff44 	bl	80105d0 <is_valid>
 8010748:	4603      	mov	r3, r0
 801074a:	2b00      	cmp	r3, #0
 801074c:	d001      	beq.n	8010752 <eestate_load+0x6e>
 801074e:	2301      	movs	r3, #1
 8010750:	e000      	b.n	8010754 <eestate_load+0x70>
 8010752:	2300      	movs	r3, #0
 8010754:	f8c7 3088 	str.w	r3, [r7, #136]	@ 0x88

    if (!va && !vb) {
 8010758:	f8d7 308c 	ldr.w	r3, [r7, #140]	@ 0x8c
 801075c:	2b00      	cmp	r3, #0
 801075e:	d108      	bne.n	8010772 <eestate_load+0x8e>
 8010760:	f8d7 3088 	ldr.w	r3, [r7, #136]	@ 0x88
 8010764:	2b00      	cmp	r3, #0
 8010766:	d104      	bne.n	8010772 <eestate_load+0x8e>
        set_default(out);
 8010768:	6878      	ldr	r0, [r7, #4]
 801076a:	f7ff ff5b 	bl	8010624 <set_default>
        return 0;
 801076e:	2300      	movs	r3, #0
 8010770:	e061      	b.n	8010836 <eestate_load+0x152>
    }
    if (va && !vb) { *out = a; return 0; }
 8010772:	f8d7 308c 	ldr.w	r3, [r7, #140]	@ 0x8c
 8010776:	2b00      	cmp	r3, #0
 8010778:	d017      	beq.n	80107aa <eestate_load+0xc6>
 801077a:	f8d7 3088 	ldr.w	r3, [r7, #136]	@ 0x88
 801077e:	2b00      	cmp	r3, #0
 8010780:	d113      	bne.n	80107aa <eestate_load+0xc6>
 8010782:	687b      	ldr	r3, [r7, #4]
 8010784:	f107 0448 	add.w	r4, r7, #72	@ 0x48
 8010788:	469c      	mov	ip, r3
 801078a:	f104 0e40 	add.w	lr, r4, #64	@ 0x40
 801078e:	4665      	mov	r5, ip
 8010790:	4626      	mov	r6, r4
 8010792:	ce0f      	ldmia	r6!, {r0, r1, r2, r3}
 8010794:	6028      	str	r0, [r5, #0]
 8010796:	6069      	str	r1, [r5, #4]
 8010798:	60aa      	str	r2, [r5, #8]
 801079a:	60eb      	str	r3, [r5, #12]
 801079c:	3410      	adds	r4, #16
 801079e:	f10c 0c10 	add.w	ip, ip, #16
 80107a2:	4574      	cmp	r4, lr
 80107a4:	d1f3      	bne.n	801078e <eestate_load+0xaa>
 80107a6:	2300      	movs	r3, #0
 80107a8:	e045      	b.n	8010836 <eestate_load+0x152>
    if (!va && vb) { *out = b; return 0; }
 80107aa:	f8d7 308c 	ldr.w	r3, [r7, #140]	@ 0x8c
 80107ae:	2b00      	cmp	r3, #0
 80107b0:	d117      	bne.n	80107e2 <eestate_load+0xfe>
 80107b2:	f8d7 3088 	ldr.w	r3, [r7, #136]	@ 0x88
 80107b6:	2b00      	cmp	r3, #0
 80107b8:	d013      	beq.n	80107e2 <eestate_load+0xfe>
 80107ba:	687b      	ldr	r3, [r7, #4]
 80107bc:	f107 0408 	add.w	r4, r7, #8
 80107c0:	469c      	mov	ip, r3
 80107c2:	f104 0e40 	add.w	lr, r4, #64	@ 0x40
 80107c6:	4665      	mov	r5, ip
 80107c8:	4626      	mov	r6, r4
 80107ca:	ce0f      	ldmia	r6!, {r0, r1, r2, r3}
 80107cc:	6028      	str	r0, [r5, #0]
 80107ce:	6069      	str	r1, [r5, #4]
 80107d0:	60aa      	str	r2, [r5, #8]
 80107d2:	60eb      	str	r3, [r5, #12]
 80107d4:	3410      	adds	r4, #16
 80107d6:	f10c 0c10 	add.w	ip, ip, #16
 80107da:	4574      	cmp	r4, lr
 80107dc:	d1f3      	bne.n	80107c6 <eestate_load+0xe2>
 80107de:	2300      	movs	r3, #0
 80107e0:	e029      	b.n	8010836 <eestate_load+0x152>

    *out = (a.seq >= b.seq) ? a : b;
 80107e2:	6d3a      	ldr	r2, [r7, #80]	@ 0x50
 80107e4:	693b      	ldr	r3, [r7, #16]
 80107e6:	429a      	cmp	r2, r3
 80107e8:	d312      	bcc.n	8010810 <eestate_load+0x12c>
 80107ea:	687b      	ldr	r3, [r7, #4]
 80107ec:	f107 0448 	add.w	r4, r7, #72	@ 0x48
 80107f0:	469c      	mov	ip, r3
 80107f2:	f104 0e40 	add.w	lr, r4, #64	@ 0x40
 80107f6:	4665      	mov	r5, ip
 80107f8:	4626      	mov	r6, r4
 80107fa:	ce0f      	ldmia	r6!, {r0, r1, r2, r3}
 80107fc:	6028      	str	r0, [r5, #0]
 80107fe:	6069      	str	r1, [r5, #4]
 8010800:	60aa      	str	r2, [r5, #8]
 8010802:	60eb      	str	r3, [r5, #12]
 8010804:	3410      	adds	r4, #16
 8010806:	f10c 0c10 	add.w	ip, ip, #16
 801080a:	4574      	cmp	r4, lr
 801080c:	d1f3      	bne.n	80107f6 <eestate_load+0x112>
 801080e:	e011      	b.n	8010834 <eestate_load+0x150>
 8010810:	687b      	ldr	r3, [r7, #4]
 8010812:	f107 0408 	add.w	r4, r7, #8
 8010816:	469c      	mov	ip, r3
 8010818:	f104 0e40 	add.w	lr, r4, #64	@ 0x40
 801081c:	4665      	mov	r5, ip
 801081e:	4626      	mov	r6, r4
 8010820:	ce0f      	ldmia	r6!, {r0, r1, r2, r3}
 8010822:	6028      	str	r0, [r5, #0]
 8010824:	6069      	str	r1, [r5, #4]
 8010826:	60aa      	str	r2, [r5, #8]
 8010828:	60eb      	str	r3, [r5, #12]
 801082a:	3410      	adds	r4, #16
 801082c:	f10c 0c10 	add.w	ip, ip, #16
 8010830:	4574      	cmp	r4, lr
 8010832:	d1f3      	bne.n	801081c <eestate_load+0x138>
    return 0;
 8010834:	2300      	movs	r3, #0
}
 8010836:	4618      	mov	r0, r3
 8010838:	379c      	adds	r7, #156	@ 0x9c
 801083a:	46bd      	mov	sp, r7
 801083c:	bdf0      	pop	{r4, r5, r6, r7, pc}
	...

08010840 <eestate_store_next>:

int eestate_store_next(const eestate_t* in)
{
 8010840:	b5f0      	push	{r4, r5, r6, r7, lr}
 8010842:	b0a5      	sub	sp, #148	@ 0x94
 8010844:	af00      	add	r7, sp, #0
 8010846:	6078      	str	r0, [r7, #4]
    eestate_t now;
    eestate_load(&now);
 8010848:	f107 034c 	add.w	r3, r7, #76	@ 0x4c
 801084c:	4618      	mov	r0, r3
 801084e:	f7ff ff49 	bl	80106e4 <eestate_load>

    eestate_t next = *in;
 8010852:	687b      	ldr	r3, [r7, #4]
 8010854:	461c      	mov	r4, r3
 8010856:	f107 060c 	add.w	r6, r7, #12
 801085a:	f104 0c40 	add.w	ip, r4, #64	@ 0x40
 801085e:	4635      	mov	r5, r6
 8010860:	4623      	mov	r3, r4
 8010862:	6818      	ldr	r0, [r3, #0]
 8010864:	6859      	ldr	r1, [r3, #4]
 8010866:	689a      	ldr	r2, [r3, #8]
 8010868:	68db      	ldr	r3, [r3, #12]
 801086a:	c50f      	stmia	r5!, {r0, r1, r2, r3}
 801086c:	3410      	adds	r4, #16
 801086e:	3610      	adds	r6, #16
 8010870:	4564      	cmp	r4, ip
 8010872:	d1f4      	bne.n	801085e <eestate_store_next+0x1e>
    next.magic = EESTATE_MAGIC;
 8010874:	4b14      	ldr	r3, [pc, #80]	@ (80108c8 <eestate_store_next+0x88>)
 8010876:	60fb      	str	r3, [r7, #12]
    next.ver   = EESTATE_VER;
 8010878:	2301      	movs	r3, #1
 801087a:	823b      	strh	r3, [r7, #16]
    next.size  = EESTATE_SIZE;
 801087c:	2340      	movs	r3, #64	@ 0x40
 801087e:	827b      	strh	r3, [r7, #18]
    next.seq   = now.seq + 1;
 8010880:	6d7b      	ldr	r3, [r7, #84]	@ 0x54
 8010882:	3301      	adds	r3, #1
 8010884:	617b      	str	r3, [r7, #20]
    next.check = calc_xor(&next);
 8010886:	f107 030c 	add.w	r3, r7, #12
 801088a:	4618      	mov	r0, r3
 801088c:	f7ff fe80 	bl	8010590 <calc_xor>
 8010890:	4603      	mov	r3, r0
 8010892:	64bb      	str	r3, [r7, #72]	@ 0x48

    // 0,2,4... slot0, 1,3,5... slot1  )
    uint16_t addr = (next.seq & 1u) ? EESTATE_SLOT1_ADDR : EESTATE_SLOT0_ADDR;
 8010894:	697b      	ldr	r3, [r7, #20]
 8010896:	f003 0301 	and.w	r3, r3, #1
 801089a:	2b00      	cmp	r3, #0
 801089c:	d002      	beq.n	80108a4 <eestate_store_next+0x64>
 801089e:	f647 73c0 	movw	r3, #32704	@ 0x7fc0
 80108a2:	e001      	b.n	80108a8 <eestate_store_next+0x68>
 80108a4:	f44f 43ff 	mov.w	r3, #32640	@ 0x7f80
 80108a8:	f8a7 308e 	strh.w	r3, [r7, #142]	@ 0x8e
    return at24c256_write(addr, (const uint8_t*)&next, sizeof(next));
 80108ac:	f107 010c 	add.w	r1, r7, #12
 80108b0:	f8b7 308e 	ldrh.w	r3, [r7, #142]	@ 0x8e
 80108b4:	2240      	movs	r2, #64	@ 0x40
 80108b6:	4618      	mov	r0, r3
 80108b8:	f000 fbd6 	bl	8011068 <at24c256_write>
 80108bc:	4603      	mov	r3, r0
}
 80108be:	4618      	mov	r0, r3
 80108c0:	3794      	adds	r7, #148	@ 0x94
 80108c2:	46bd      	mov	sp, r7
 80108c4:	bdf0      	pop	{r4, r5, r6, r7, pc}
 80108c6:	bf00      	nop
 80108c8:	45535441 	.word	0x45535441

080108cc <eestate_confirm_ok>:
    if (out_enter_recovery) *out_enter_recovery = 0;
    return 0;
}

int eestate_confirm_ok(void)
{
 80108cc:	b580      	push	{r7, lr}
 80108ce:	b090      	sub	sp, #64	@ 0x40
 80108d0:	af00      	add	r7, sp, #0
    eestate_t s;
    eestate_load(&s);
 80108d2:	463b      	mov	r3, r7
 80108d4:	4618      	mov	r0, r3
 80108d6:	f7ff ff05 	bl	80106e4 <eestate_load>

    s.flags &= ~EESTATE_PENDING;
 80108da:	68fb      	ldr	r3, [r7, #12]
 80108dc:	f023 0301 	bic.w	r3, r3, #1
 80108e0:	60fb      	str	r3, [r7, #12]
    s.flags &= ~EESTATE_RECOVERY;
 80108e2:	68fb      	ldr	r3, [r7, #12]
 80108e4:	f023 0302 	bic.w	r3, r3, #2
 80108e8:	60fb      	str	r3, [r7, #12]
    s.fail_streak = 0;
 80108ea:	2300      	movs	r3, #0
 80108ec:	823b      	strh	r3, [r7, #16]

    return eestate_store_next(&s);
 80108ee:	463b      	mov	r3, r7
 80108f0:	4618      	mov	r0, r3
 80108f2:	f7ff ffa5 	bl	8010840 <eestate_store_next>
 80108f6:	4603      	mov	r3, r0
}
 80108f8:	4618      	mov	r0, r3
 80108fa:	3740      	adds	r7, #64	@ 0x40
 80108fc:	46bd      	mov	sp, r7
 80108fe:	bd80      	pop	{r7, pc}

08010900 <GPIO_Enable>:

#include "f429zi_reg.h"
#include <gpio.h>


int GPIO_Enable(gpio_port_t port){
 8010900:	b480      	push	{r7}
 8010902:	b083      	sub	sp, #12
 8010904:	af00      	add	r7, sp, #0
 8010906:	4603      	mov	r3, r0
 8010908:	71fb      	strb	r3, [r7, #7]
	if (port > GPIO_PORT_K) return 1;
 801090a:	79fb      	ldrb	r3, [r7, #7]
 801090c:	2b0a      	cmp	r3, #10
 801090e:	d901      	bls.n	8010914 <GPIO_Enable+0x14>
 8010910:	2301      	movs	r3, #1
 8010912:	e009      	b.n	8010928 <GPIO_Enable+0x28>
	*AHB1ENR |=(1U<<port);
 8010914:	4b07      	ldr	r3, [pc, #28]	@ (8010934 <GPIO_Enable+0x34>)
 8010916:	681a      	ldr	r2, [r3, #0]
 8010918:	79fb      	ldrb	r3, [r7, #7]
 801091a:	2101      	movs	r1, #1
 801091c:	fa01 f303 	lsl.w	r3, r1, r3
 8010920:	4904      	ldr	r1, [pc, #16]	@ (8010934 <GPIO_Enable+0x34>)
 8010922:	4313      	orrs	r3, r2
 8010924:	600b      	str	r3, [r1, #0]
	return 0;
 8010926:	2300      	movs	r3, #0
}
 8010928:	4618      	mov	r0, r3
 801092a:	370c      	adds	r7, #12
 801092c:	46bd      	mov	sp, r7
 801092e:	f85d 7b04 	ldr.w	r7, [sp], #4
 8010932:	4770      	bx	lr
 8010934:	40023830 	.word	0x40023830

08010938 <GPIO_Write>:

int GPIO_Write(gpio_port_t port ,uint32_t pin, uint32_t level){
 8010938:	b580      	push	{r7, lr}
 801093a:	b08a      	sub	sp, #40	@ 0x28
 801093c:	af00      	add	r7, sp, #0
 801093e:	4603      	mov	r3, r0
 8010940:	60b9      	str	r1, [r7, #8]
 8010942:	607a      	str	r2, [r7, #4]
 8010944:	73fb      	strb	r3, [r7, #15]
	volatile uint32_t*base,*GPIOx_MODER,*GPIOx_BSRR;
	uint32_t const GPIO_MOD_Mask = (0x1U << (2U * pin));
 8010946:	68bb      	ldr	r3, [r7, #8]
 8010948:	005b      	lsls	r3, r3, #1
 801094a:	2201      	movs	r2, #1
 801094c:	fa02 f303 	lsl.w	r3, r2, r3
 8010950:	627b      	str	r3, [r7, #36]	@ 0x24
	uint32_t const GPIO_MOD_ClearMask = ~(0x3U << (2U * pin));
 8010952:	68bb      	ldr	r3, [r7, #8]
 8010954:	005b      	lsls	r3, r3, #1
 8010956:	2203      	movs	r2, #3
 8010958:	fa02 f303 	lsl.w	r3, r2, r3
 801095c:	43db      	mvns	r3, r3
 801095e:	623b      	str	r3, [r7, #32]

	if(pin>15) return 1 ;
 8010960:	68bb      	ldr	r3, [r7, #8]
 8010962:	2b0f      	cmp	r3, #15
 8010964:	d901      	bls.n	801096a <GPIO_Write+0x32>
 8010966:	2301      	movs	r3, #1
 8010968:	e027      	b.n	80109ba <GPIO_Write+0x82>

	base =(volatile uint32_t*)((uintptr_t)GPIO_BASE_VAL + (port * 0x400));
 801096a:	7bfb      	ldrb	r3, [r7, #15]
 801096c:	029b      	lsls	r3, r3, #10
 801096e:	f103 4380 	add.w	r3, r3, #1073741824	@ 0x40000000
 8010972:	f503 3300 	add.w	r3, r3, #131072	@ 0x20000
 8010976:	61fb      	str	r3, [r7, #28]
	GPIOx_MODER=(volatile uint32_t*)((uintptr_t)base + 0x00U);
 8010978:	69fb      	ldr	r3, [r7, #28]
 801097a:	61bb      	str	r3, [r7, #24]
	GPIOx_BSRR =(volatile uint32_t*)((uintptr_t)base + 0x18U);
 801097c:	69fb      	ldr	r3, [r7, #28]
 801097e:	3318      	adds	r3, #24
 8010980:	617b      	str	r3, [r7, #20]

	GPIO_Enable(port);
 8010982:	7bfb      	ldrb	r3, [r7, #15]
 8010984:	4618      	mov	r0, r3
 8010986:	f7ff ffbb 	bl	8010900 <GPIO_Enable>
	*GPIOx_MODER= (*GPIOx_MODER & GPIO_MOD_ClearMask) | GPIO_MOD_Mask;
 801098a:	69bb      	ldr	r3, [r7, #24]
 801098c:	681a      	ldr	r2, [r3, #0]
 801098e:	6a3b      	ldr	r3, [r7, #32]
 8010990:	401a      	ands	r2, r3
 8010992:	6a7b      	ldr	r3, [r7, #36]	@ 0x24
 8010994:	431a      	orrs	r2, r3
 8010996:	69bb      	ldr	r3, [r7, #24]
 8010998:	601a      	str	r2, [r3, #0]

	if (level == 1)
 801099a:	687b      	ldr	r3, [r7, #4]
 801099c:	2b01      	cmp	r3, #1
 801099e:	d105      	bne.n	80109ac <GPIO_Write+0x74>
		*GPIOx_BSRR = (1U << pin);
 80109a0:	2201      	movs	r2, #1
 80109a2:	68bb      	ldr	r3, [r7, #8]
 80109a4:	409a      	lsls	r2, r3
 80109a6:	697b      	ldr	r3, [r7, #20]
 80109a8:	601a      	str	r2, [r3, #0]
 80109aa:	e005      	b.n	80109b8 <GPIO_Write+0x80>
	else
		*GPIOx_BSRR = (1U << (pin+16U));
 80109ac:	68bb      	ldr	r3, [r7, #8]
 80109ae:	3310      	adds	r3, #16
 80109b0:	2201      	movs	r2, #1
 80109b2:	409a      	lsls	r2, r3
 80109b4:	697b      	ldr	r3, [r7, #20]
 80109b6:	601a      	str	r2, [r3, #0]
	return 0;
 80109b8:	2300      	movs	r3, #0
}
 80109ba:	4618      	mov	r0, r3
 80109bc:	3728      	adds	r7, #40	@ 0x28
 80109be:	46bd      	mov	sp, r7
 80109c0:	bd80      	pop	{r7, pc}
	...

080109c4 <GPIO_AF>:

int GPIO_AF(gpio_port_t port ,uint32_t pin_num,uint32_t af_num){
 80109c4:	b580      	push	{r7, lr}
 80109c6:	b08e      	sub	sp, #56	@ 0x38
 80109c8:	af00      	add	r7, sp, #0
 80109ca:	4603      	mov	r3, r0
 80109cc:	60b9      	str	r1, [r7, #8]
 80109ce:	607a      	str	r2, [r7, #4]
 80109d0:	73fb      	strb	r3, [r7, #15]
	volatile uint32_t* GPIOx_MODER= (volatile uint32_t*)((uintptr_t)GPIO_BASE_VAL + (port * 0x400) + 0x00U);
 80109d2:	7bfb      	ldrb	r3, [r7, #15]
 80109d4:	029b      	lsls	r3, r3, #10
 80109d6:	f103 4380 	add.w	r3, r3, #1073741824	@ 0x40000000
 80109da:	f503 3300 	add.w	r3, r3, #131072	@ 0x20000
 80109de:	637b      	str	r3, [r7, #52]	@ 0x34
	volatile uint32_t* GPIOx_AFRL= (volatile uint32_t*)((uintptr_t)GPIO_BASE_VAL + (port * 0x400) + 0x20U);
 80109e0:	7bfb      	ldrb	r3, [r7, #15]
 80109e2:	029b      	lsls	r3, r3, #10
 80109e4:	461a      	mov	r2, r3
 80109e6:	4b30      	ldr	r3, [pc, #192]	@ (8010aa8 <GPIO_AF+0xe4>)
 80109e8:	4413      	add	r3, r2
 80109ea:	633b      	str	r3, [r7, #48]	@ 0x30
	volatile uint32_t* GPIOx_AFRH= (volatile uint32_t*)((uintptr_t)GPIO_BASE_VAL + (port * 0x400) + 0x24U);
 80109ec:	7bfb      	ldrb	r3, [r7, #15]
 80109ee:	029b      	lsls	r3, r3, #10
 80109f0:	461a      	mov	r2, r3
 80109f2:	4b2e      	ldr	r3, [pc, #184]	@ (8010aac <GPIO_AF+0xe8>)
 80109f4:	4413      	add	r3, r2
 80109f6:	62fb      	str	r3, [r7, #44]	@ 0x2c

	uint32_t const GPIO_MOD_Mask = (2U << (2U * pin_num));
 80109f8:	68bb      	ldr	r3, [r7, #8]
 80109fa:	005b      	lsls	r3, r3, #1
 80109fc:	2202      	movs	r2, #2
 80109fe:	fa02 f303 	lsl.w	r3, r2, r3
 8010a02:	62bb      	str	r3, [r7, #40]	@ 0x28
	uint32_t const GPIO_MOD_ClearMask = ~(3U << (2U * pin_num));
 8010a04:	68bb      	ldr	r3, [r7, #8]
 8010a06:	005b      	lsls	r3, r3, #1
 8010a08:	2203      	movs	r2, #3
 8010a0a:	fa02 f303 	lsl.w	r3, r2, r3
 8010a0e:	43db      	mvns	r3, r3
 8010a10:	627b      	str	r3, [r7, #36]	@ 0x24

	if(af_num>15 ||pin_num>15){
 8010a12:	687b      	ldr	r3, [r7, #4]
 8010a14:	2b0f      	cmp	r3, #15
 8010a16:	d802      	bhi.n	8010a1e <GPIO_AF+0x5a>
 8010a18:	68bb      	ldr	r3, [r7, #8]
 8010a1a:	2b0f      	cmp	r3, #15
 8010a1c:	d902      	bls.n	8010a24 <GPIO_AF+0x60>
		return -1;
 8010a1e:	f04f 33ff 	mov.w	r3, #4294967295
 8010a22:	e03c      	b.n	8010a9e <GPIO_AF+0xda>
	}

	GPIO_Enable(port);
 8010a24:	7bfb      	ldrb	r3, [r7, #15]
 8010a26:	4618      	mov	r0, r3
 8010a28:	f7ff ff6a 	bl	8010900 <GPIO_Enable>
	*GPIOx_MODER= (*GPIOx_MODER & GPIO_MOD_ClearMask) | GPIO_MOD_Mask;
 8010a2c:	6b7b      	ldr	r3, [r7, #52]	@ 0x34
 8010a2e:	681a      	ldr	r2, [r3, #0]
 8010a30:	6a7b      	ldr	r3, [r7, #36]	@ 0x24
 8010a32:	401a      	ands	r2, r3
 8010a34:	6abb      	ldr	r3, [r7, #40]	@ 0x28
 8010a36:	431a      	orrs	r2, r3
 8010a38:	6b7b      	ldr	r3, [r7, #52]	@ 0x34
 8010a3a:	601a      	str	r2, [r3, #0]


	if (pin_num > 7) {
 8010a3c:	68bb      	ldr	r3, [r7, #8]
 8010a3e:	2b07      	cmp	r3, #7
 8010a40:	d917      	bls.n	8010a72 <GPIO_AF+0xae>
		uint32_t const GPIO_AFRH_Mask = (af_num << ((pin_num - 8) * 4U));
 8010a42:	68bb      	ldr	r3, [r7, #8]
 8010a44:	3b08      	subs	r3, #8
 8010a46:	009b      	lsls	r3, r3, #2
 8010a48:	687a      	ldr	r2, [r7, #4]
 8010a4a:	fa02 f303 	lsl.w	r3, r2, r3
 8010a4e:	61bb      	str	r3, [r7, #24]
		uint32_t const GPIO_AFRH_ClearMask = ~(0xfU << ((pin_num - 8) * 4U));
 8010a50:	68bb      	ldr	r3, [r7, #8]
 8010a52:	3b08      	subs	r3, #8
 8010a54:	009b      	lsls	r3, r3, #2
 8010a56:	220f      	movs	r2, #15
 8010a58:	fa02 f303 	lsl.w	r3, r2, r3
 8010a5c:	43db      	mvns	r3, r3
 8010a5e:	617b      	str	r3, [r7, #20]
		*GPIOx_AFRH= (*GPIOx_AFRH & GPIO_AFRH_ClearMask) | GPIO_AFRH_Mask;
 8010a60:	6afb      	ldr	r3, [r7, #44]	@ 0x2c
 8010a62:	681a      	ldr	r2, [r3, #0]
 8010a64:	697b      	ldr	r3, [r7, #20]
 8010a66:	401a      	ands	r2, r3
 8010a68:	69bb      	ldr	r3, [r7, #24]
 8010a6a:	431a      	orrs	r2, r3
 8010a6c:	6afb      	ldr	r3, [r7, #44]	@ 0x2c
 8010a6e:	601a      	str	r2, [r3, #0]
 8010a70:	e014      	b.n	8010a9c <GPIO_AF+0xd8>
	} else {
		uint32_t const GPIO_AFRL_Mask = (af_num << (pin_num * 4U));
 8010a72:	68bb      	ldr	r3, [r7, #8]
 8010a74:	009b      	lsls	r3, r3, #2
 8010a76:	687a      	ldr	r2, [r7, #4]
 8010a78:	fa02 f303 	lsl.w	r3, r2, r3
 8010a7c:	623b      	str	r3, [r7, #32]
		uint32_t const GPIO_AFRL_ClearMask = ~(0xfU << (pin_num * 4U));
 8010a7e:	68bb      	ldr	r3, [r7, #8]
 8010a80:	009b      	lsls	r3, r3, #2
 8010a82:	220f      	movs	r2, #15
 8010a84:	fa02 f303 	lsl.w	r3, r2, r3
 8010a88:	43db      	mvns	r3, r3
 8010a8a:	61fb      	str	r3, [r7, #28]
		*GPIOx_AFRL= (*GPIOx_AFRL & GPIO_AFRL_ClearMask) | GPIO_AFRL_Mask;
 8010a8c:	6b3b      	ldr	r3, [r7, #48]	@ 0x30
 8010a8e:	681a      	ldr	r2, [r3, #0]
 8010a90:	69fb      	ldr	r3, [r7, #28]
 8010a92:	401a      	ands	r2, r3
 8010a94:	6a3b      	ldr	r3, [r7, #32]
 8010a96:	431a      	orrs	r2, r3
 8010a98:	6b3b      	ldr	r3, [r7, #48]	@ 0x30
 8010a9a:	601a      	str	r2, [r3, #0]
	}

	return 0;
 8010a9c:	2300      	movs	r3, #0
}
 8010a9e:	4618      	mov	r0, r3
 8010aa0:	3738      	adds	r7, #56	@ 0x38
 8010aa2:	46bd      	mov	sp, r7
 8010aa4:	bd80      	pop	{r7, pc}
 8010aa6:	bf00      	nop
 8010aa8:	40020020 	.word	0x40020020
 8010aac:	40020024 	.word	0x40020024

08010ab0 <i2c1_init>:
• Configure the rise time register
• Program the I2C_CR1 register to enable the peripheral
• Set the START bit in the I2C_CR1 register to generate a Start condition*/

//MOD 0: Master , 1:Slave
void i2c1_init(int mod) {
 8010ab0:	b580      	push	{r7, lr}
 8010ab2:	b086      	sub	sp, #24
 8010ab4:	af00      	add	r7, sp, #0
 8010ab6:	6078      	str	r0, [r7, #4]
	*GPIOB_AFRH= (*GPIOB_AFRH & GPIO_AFRH_ClearMask) | GPIO_AFRH_Mask;

	*/

	// PB6(12~13), PB9(18~19)
	uint32_t const OSPEED_MASK = (0x3U << (12U)) | (0x3U << (18U));
 8010ab8:	f44f 2343 	mov.w	r3, #798720	@ 0xc3000
 8010abc:	617b      	str	r3, [r7, #20]
	uint32_t const OSPEED_VERYHIGH = (0x3U << (12U)) | (0x3U << (18U));
 8010abe:	f44f 2343 	mov.w	r3, #798720	@ 0xc3000
 8010ac2:	613b      	str	r3, [r7, #16]

	uint32_t const PUPD_MASK = (0x3U << 12U) | (0x3U << 18U);
 8010ac4:	f44f 2343 	mov.w	r3, #798720	@ 0xc3000
 8010ac8:	60fb      	str	r3, [r7, #12]
	uint32_t const PUPD_VAL = (0x1U << 12U) | (0x1U << 18U);  //Pull Up!
 8010aca:	f44f 2382 	mov.w	r3, #266240	@ 0x41000
 8010ace:	60bb      	str	r3, [r7, #8]

	GPIO_Enable(GPIO_PORT_B);
 8010ad0:	2001      	movs	r0, #1
 8010ad2:	f7ff ff15 	bl	8010900 <GPIO_Enable>
	*APB1ENR|=(0x1U<<21U); //I2C1 Enable
 8010ad6:	4b33      	ldr	r3, [pc, #204]	@ (8010ba4 <i2c1_init+0xf4>)
 8010ad8:	681b      	ldr	r3, [r3, #0]
 8010ada:	4a32      	ldr	r2, [pc, #200]	@ (8010ba4 <i2c1_init+0xf4>)
 8010adc:	f443 1300 	orr.w	r3, r3, #2097152	@ 0x200000
 8010ae0:	6013      	str	r3, [r2, #0]

	GPIO_AF(GPIO_PORT_B,6,4);
 8010ae2:	2204      	movs	r2, #4
 8010ae4:	2106      	movs	r1, #6
 8010ae6:	2001      	movs	r0, #1
 8010ae8:	f7ff ff6c 	bl	80109c4 <GPIO_AF>
	GPIO_AF(GPIO_PORT_B,9,4);
 8010aec:	2204      	movs	r2, #4
 8010aee:	2109      	movs	r1, #9
 8010af0:	2001      	movs	r0, #1
 8010af2:	f7ff ff67 	bl	80109c4 <GPIO_AF>

	*GPIOB_OTYPER|=(0x1U << 6U) | (0x1U << 9U);
 8010af6:	4b2c      	ldr	r3, [pc, #176]	@ (8010ba8 <i2c1_init+0xf8>)
 8010af8:	681b      	ldr	r3, [r3, #0]
 8010afa:	4a2b      	ldr	r2, [pc, #172]	@ (8010ba8 <i2c1_init+0xf8>)
 8010afc:	f443 7310 	orr.w	r3, r3, #576	@ 0x240
 8010b00:	6013      	str	r3, [r2, #0]
	*GPIOB_PUPDR = (*GPIOB_PUPDR & ~PUPD_MASK) | PUPD_VAL;
 8010b02:	4b2a      	ldr	r3, [pc, #168]	@ (8010bac <i2c1_init+0xfc>)
 8010b04:	681a      	ldr	r2, [r3, #0]
 8010b06:	68fb      	ldr	r3, [r7, #12]
 8010b08:	43db      	mvns	r3, r3
 8010b0a:	401a      	ands	r2, r3
 8010b0c:	4927      	ldr	r1, [pc, #156]	@ (8010bac <i2c1_init+0xfc>)
 8010b0e:	68bb      	ldr	r3, [r7, #8]
 8010b10:	4313      	orrs	r3, r2
 8010b12:	600b      	str	r3, [r1, #0]



	*GPIOB_OSPEEDR = (*GPIOB_OSPEEDR & ~OSPEED_MASK) | OSPEED_VERYHIGH;
 8010b14:	4b26      	ldr	r3, [pc, #152]	@ (8010bb0 <i2c1_init+0x100>)
 8010b16:	681a      	ldr	r2, [r3, #0]
 8010b18:	697b      	ldr	r3, [r7, #20]
 8010b1a:	43db      	mvns	r3, r3
 8010b1c:	401a      	ands	r2, r3
 8010b1e:	4924      	ldr	r1, [pc, #144]	@ (8010bb0 <i2c1_init+0x100>)
 8010b20:	693b      	ldr	r3, [r7, #16]
 8010b22:	4313      	orrs	r3, r2
 8010b24:	600b      	str	r3, [r1, #0]

	*I2C1_CR1&=~(0x1U);
 8010b26:	4b23      	ldr	r3, [pc, #140]	@ (8010bb4 <i2c1_init+0x104>)
 8010b28:	681b      	ldr	r3, [r3, #0]
 8010b2a:	4a22      	ldr	r2, [pc, #136]	@ (8010bb4 <i2c1_init+0x104>)
 8010b2c:	f023 0301 	bic.w	r3, r3, #1
 8010b30:	6013      	str	r3, [r2, #0]

/*  *I2C1_CR2=(0x10U); ////16Mhz ,Event+ERROR interrupt OFF
	*I2C1_CCR=(0x50U);
	*I2C1_TRISE=(0x11U); */

	*I2C1_CR2   = (get_pclk1()/1000000U);
 8010b32:	f7ff fc25 	bl	8010380 <get_pclk1>
 8010b36:	4603      	mov	r3, r0
 8010b38:	4619      	mov	r1, r3
 8010b3a:	4a1f      	ldr	r2, [pc, #124]	@ (8010bb8 <i2c1_init+0x108>)
 8010b3c:	4b1f      	ldr	r3, [pc, #124]	@ (8010bbc <i2c1_init+0x10c>)
 8010b3e:	fba3 1301 	umull	r1, r3, r3, r1
 8010b42:	0c9b      	lsrs	r3, r3, #18
 8010b44:	6013      	str	r3, [r2, #0]
	*I2C1_CCR   = (get_pclk1()/200000U); //Sm: CCR = fpclk1 / (2*fscl) (Thigh=Tlow=CCR*T_pclk1)
 8010b46:	f7ff fc1b 	bl	8010380 <get_pclk1>
 8010b4a:	4603      	mov	r3, r0
 8010b4c:	4a1c      	ldr	r2, [pc, #112]	@ (8010bc0 <i2c1_init+0x110>)
 8010b4e:	099b      	lsrs	r3, r3, #6
 8010b50:	491c      	ldr	r1, [pc, #112]	@ (8010bc4 <i2c1_init+0x114>)
 8010b52:	fba1 1303 	umull	r1, r3, r1, r3
 8010b56:	099b      	lsrs	r3, r3, #6
 8010b58:	6013      	str	r3, [r2, #0]
	*I2C1_TRISE = (get_pclk1()/1000000U)+1U;
 8010b5a:	f7ff fc11 	bl	8010380 <get_pclk1>
 8010b5e:	4603      	mov	r3, r0
 8010b60:	461a      	mov	r2, r3
 8010b62:	4b16      	ldr	r3, [pc, #88]	@ (8010bbc <i2c1_init+0x10c>)
 8010b64:	fba3 2302 	umull	r2, r3, r3, r2
 8010b68:	0c9b      	lsrs	r3, r3, #18
 8010b6a:	4a17      	ldr	r2, [pc, #92]	@ (8010bc8 <i2c1_init+0x118>)
 8010b6c:	3301      	adds	r3, #1
 8010b6e:	6013      	str	r3, [r2, #0]

	if(mod){
 8010b70:	687b      	ldr	r3, [r7, #4]
 8010b72:	2b00      	cmp	r3, #0
 8010b74:	d003      	beq.n	8010b7e <i2c1_init+0xce>
		*I2C1_OAR1 = (1U<<14U) | (0x20<<1U); //ADDR = Ox20
 8010b76:	4b15      	ldr	r3, [pc, #84]	@ (8010bcc <i2c1_init+0x11c>)
 8010b78:	f244 0240 	movw	r2, #16448	@ 0x4040
 8010b7c:	601a      	str	r2, [r3, #0]

	}
	*I2C1_CR1|=(0x1U);
 8010b7e:	4b0d      	ldr	r3, [pc, #52]	@ (8010bb4 <i2c1_init+0x104>)
 8010b80:	681b      	ldr	r3, [r3, #0]
 8010b82:	4a0c      	ldr	r2, [pc, #48]	@ (8010bb4 <i2c1_init+0x104>)
 8010b84:	f043 0301 	orr.w	r3, r3, #1
 8010b88:	6013      	str	r3, [r2, #0]
	if (mod) {
 8010b8a:	687b      	ldr	r3, [r7, #4]
 8010b8c:	2b00      	cmp	r3, #0
 8010b8e:	d005      	beq.n	8010b9c <i2c1_init+0xec>
		*I2C1_CR1 |= (1U << 10U);
 8010b90:	4b08      	ldr	r3, [pc, #32]	@ (8010bb4 <i2c1_init+0x104>)
 8010b92:	681b      	ldr	r3, [r3, #0]
 8010b94:	4a07      	ldr	r2, [pc, #28]	@ (8010bb4 <i2c1_init+0x104>)
 8010b96:	f443 6380 	orr.w	r3, r3, #1024	@ 0x400
 8010b9a:	6013      	str	r3, [r2, #0]
	}
}
 8010b9c:	bf00      	nop
 8010b9e:	3718      	adds	r7, #24
 8010ba0:	46bd      	mov	sp, r7
 8010ba2:	bd80      	pop	{r7, pc}
 8010ba4:	40023840 	.word	0x40023840
 8010ba8:	40020404 	.word	0x40020404
 8010bac:	4002040c 	.word	0x4002040c
 8010bb0:	40020408 	.word	0x40020408
 8010bb4:	40005400 	.word	0x40005400
 8010bb8:	40005404 	.word	0x40005404
 8010bbc:	431bde83 	.word	0x431bde83
 8010bc0:	4000541c 	.word	0x4000541c
 8010bc4:	053e2d63 	.word	0x053e2d63
 8010bc8:	40005420 	.word	0x40005420
 8010bcc:	40005408 	.word	0x40005408

08010bd0 <i2c1_master_tx>:

int i2c1_master_tx(uint8_t addr_8bit ,uint8_t *data, int len){
 8010bd0:	b580      	push	{r7, lr}
 8010bd2:	b086      	sub	sp, #24
 8010bd4:	af00      	add	r7, sp, #0
 8010bd6:	4603      	mov	r3, r0
 8010bd8:	60b9      	str	r1, [r7, #8]
 8010bda:	607a      	str	r2, [r7, #4]
 8010bdc:	73fb      	strb	r3, [r7, #15]

	uint32_t t0;

	*I2C1_CR1|=(0x1U << 8U); //start bit
 8010bde:	4b5f      	ldr	r3, [pc, #380]	@ (8010d5c <i2c1_master_tx+0x18c>)
 8010be0:	681b      	ldr	r3, [r3, #0]
 8010be2:	4a5e      	ldr	r2, [pc, #376]	@ (8010d5c <i2c1_master_tx+0x18c>)
 8010be4:	f443 7380 	orr.w	r3, r3, #256	@ 0x100
 8010be8:	6013      	str	r3, [r2, #0]
	t0=millis();
 8010bea:	f000 ff83 	bl	8011af4 <millis>
 8010bee:	6138      	str	r0, [r7, #16]
	while(((*I2C1_SR1)&0x1U)!=0x1U) //EV5  RF:852p
 8010bf0:	e013      	b.n	8010c1a <i2c1_master_tx+0x4a>
	{
	 if(i2c_SR1_ERR()) return -1;
 8010bf2:	f000 f9ff 	bl	8010ff4 <i2c_SR1_ERR>
 8010bf6:	4603      	mov	r3, r0
 8010bf8:	2b00      	cmp	r3, #0
 8010bfa:	d002      	beq.n	8010c02 <i2c1_master_tx+0x32>
 8010bfc:	f04f 33ff 	mov.w	r3, #4294967295
 8010c00:	e0a7      	b.n	8010d52 <i2c1_master_tx+0x182>
	 if ((uint32_t)(millis() - t0) > timeout_ms) return -2;
 8010c02:	f000 ff77 	bl	8011af4 <millis>
 8010c06:	4602      	mov	r2, r0
 8010c08:	693b      	ldr	r3, [r7, #16]
 8010c0a:	1ad3      	subs	r3, r2, r3
 8010c0c:	f241 3288 	movw	r2, #5000	@ 0x1388
 8010c10:	4293      	cmp	r3, r2
 8010c12:	d902      	bls.n	8010c1a <i2c1_master_tx+0x4a>
 8010c14:	f06f 0301 	mvn.w	r3, #1
 8010c18:	e09b      	b.n	8010d52 <i2c1_master_tx+0x182>
	while(((*I2C1_SR1)&0x1U)!=0x1U) //EV5  RF:852p
 8010c1a:	4b51      	ldr	r3, [pc, #324]	@ (8010d60 <i2c1_master_tx+0x190>)
 8010c1c:	681b      	ldr	r3, [r3, #0]
 8010c1e:	f003 0301 	and.w	r3, r3, #1
 8010c22:	2b01      	cmp	r3, #1
 8010c24:	d1e5      	bne.n	8010bf2 <i2c1_master_tx+0x22>
	}
	(void)*I2C1_SR1; //clear RF:871p SB
 8010c26:	4b4e      	ldr	r3, [pc, #312]	@ (8010d60 <i2c1_master_tx+0x190>)
 8010c28:	681b      	ldr	r3, [r3, #0]

	*I2C1_DR=addr_8bit;
 8010c2a:	4a4e      	ldr	r2, [pc, #312]	@ (8010d64 <i2c1_master_tx+0x194>)
 8010c2c:	7bfb      	ldrb	r3, [r7, #15]
 8010c2e:	6013      	str	r3, [r2, #0]

	t0 = millis();
 8010c30:	f000 ff60 	bl	8011af4 <millis>
 8010c34:	6138      	str	r0, [r7, #16]
	while(((*I2C1_SR1)&0x2U)!=0x2U) //EV6....
 8010c36:	e013      	b.n	8010c60 <i2c1_master_tx+0x90>
	{
	 if(i2c_SR1_ERR()) return -1;
 8010c38:	f000 f9dc 	bl	8010ff4 <i2c_SR1_ERR>
 8010c3c:	4603      	mov	r3, r0
 8010c3e:	2b00      	cmp	r3, #0
 8010c40:	d002      	beq.n	8010c48 <i2c1_master_tx+0x78>
 8010c42:	f04f 33ff 	mov.w	r3, #4294967295
 8010c46:	e084      	b.n	8010d52 <i2c1_master_tx+0x182>
	 if ((uint32_t)(millis() - t0) > timeout_ms) return -2;
 8010c48:	f000 ff54 	bl	8011af4 <millis>
 8010c4c:	4602      	mov	r2, r0
 8010c4e:	693b      	ldr	r3, [r7, #16]
 8010c50:	1ad3      	subs	r3, r2, r3
 8010c52:	f241 3288 	movw	r2, #5000	@ 0x1388
 8010c56:	4293      	cmp	r3, r2
 8010c58:	d902      	bls.n	8010c60 <i2c1_master_tx+0x90>
 8010c5a:	f06f 0301 	mvn.w	r3, #1
 8010c5e:	e078      	b.n	8010d52 <i2c1_master_tx+0x182>
	while(((*I2C1_SR1)&0x2U)!=0x2U) //EV6....
 8010c60:	4b3f      	ldr	r3, [pc, #252]	@ (8010d60 <i2c1_master_tx+0x190>)
 8010c62:	681b      	ldr	r3, [r3, #0]
 8010c64:	f003 0302 	and.w	r3, r3, #2
 8010c68:	2b02      	cmp	r3, #2
 8010c6a:	d1e5      	bne.n	8010c38 <i2c1_master_tx+0x68>
	}
	(void)*I2C1_SR1;
 8010c6c:	4b3c      	ldr	r3, [pc, #240]	@ (8010d60 <i2c1_master_tx+0x190>)
 8010c6e:	681b      	ldr	r3, [r3, #0]
	(void)*I2C1_SR2; //clear RF:871p ADDR
 8010c70:	4b3d      	ldr	r3, [pc, #244]	@ (8010d68 <i2c1_master_tx+0x198>)
 8010c72:	681b      	ldr	r3, [r3, #0]

	for (int i = 0; i < len; i++) {
 8010c74:	2300      	movs	r3, #0
 8010c76:	617b      	str	r3, [r7, #20]
 8010c78:	e03c      	b.n	8010cf4 <i2c1_master_tx+0x124>

		if (((*I2C1_SR1) & (0x1U << 10U)) == (0x1U << 10U)) { //AF(NACK)
 8010c7a:	4b39      	ldr	r3, [pc, #228]	@ (8010d60 <i2c1_master_tx+0x190>)
 8010c7c:	681b      	ldr	r3, [r3, #0]
 8010c7e:	f403 6380 	and.w	r3, r3, #1024	@ 0x400
 8010c82:	f5b3 6f80 	cmp.w	r3, #1024	@ 0x400
 8010c86:	d10d      	bne.n	8010ca4 <i2c1_master_tx+0xd4>
			*I2C1_CR1 |= (1U << 9); //STOP
 8010c88:	4b34      	ldr	r3, [pc, #208]	@ (8010d5c <i2c1_master_tx+0x18c>)
 8010c8a:	681b      	ldr	r3, [r3, #0]
 8010c8c:	4a33      	ldr	r2, [pc, #204]	@ (8010d5c <i2c1_master_tx+0x18c>)
 8010c8e:	f443 7300 	orr.w	r3, r3, #512	@ 0x200
 8010c92:	6013      	str	r3, [r2, #0]
			*I2C1_SR1 &= ~(1U << 10); // AF clear
 8010c94:	4b32      	ldr	r3, [pc, #200]	@ (8010d60 <i2c1_master_tx+0x190>)
 8010c96:	681b      	ldr	r3, [r3, #0]
 8010c98:	4a31      	ldr	r2, [pc, #196]	@ (8010d60 <i2c1_master_tx+0x190>)
 8010c9a:	f423 6380 	bic.w	r3, r3, #1024	@ 0x400
 8010c9e:	6013      	str	r3, [r2, #0]
			return 1;
 8010ca0:	2301      	movs	r3, #1
 8010ca2:	e056      	b.n	8010d52 <i2c1_master_tx+0x182>
		}
		t0=millis();
 8010ca4:	f000 ff26 	bl	8011af4 <millis>
 8010ca8:	6138      	str	r0, [r7, #16]
		while (((*I2C1_SR1) & (0x1U << 7U)) != (0x1U << 7U)) //EV8_1
 8010caa:	e013      	b.n	8010cd4 <i2c1_master_tx+0x104>
		{
		 if(i2c_SR1_ERR()) return -1;
 8010cac:	f000 f9a2 	bl	8010ff4 <i2c_SR1_ERR>
 8010cb0:	4603      	mov	r3, r0
 8010cb2:	2b00      	cmp	r3, #0
 8010cb4:	d002      	beq.n	8010cbc <i2c1_master_tx+0xec>
 8010cb6:	f04f 33ff 	mov.w	r3, #4294967295
 8010cba:	e04a      	b.n	8010d52 <i2c1_master_tx+0x182>
		 if ((uint32_t)(millis() - t0) > timeout_ms) return -2;
 8010cbc:	f000 ff1a 	bl	8011af4 <millis>
 8010cc0:	4602      	mov	r2, r0
 8010cc2:	693b      	ldr	r3, [r7, #16]
 8010cc4:	1ad3      	subs	r3, r2, r3
 8010cc6:	f241 3288 	movw	r2, #5000	@ 0x1388
 8010cca:	4293      	cmp	r3, r2
 8010ccc:	d902      	bls.n	8010cd4 <i2c1_master_tx+0x104>
 8010cce:	f06f 0301 	mvn.w	r3, #1
 8010cd2:	e03e      	b.n	8010d52 <i2c1_master_tx+0x182>
		while (((*I2C1_SR1) & (0x1U << 7U)) != (0x1U << 7U)) //EV8_1
 8010cd4:	4b22      	ldr	r3, [pc, #136]	@ (8010d60 <i2c1_master_tx+0x190>)
 8010cd6:	681b      	ldr	r3, [r3, #0]
 8010cd8:	f003 0380 	and.w	r3, r3, #128	@ 0x80
 8010cdc:	2b80      	cmp	r3, #128	@ 0x80
 8010cde:	d1e5      	bne.n	8010cac <i2c1_master_tx+0xdc>
		}
		*I2C1_DR = *data;
 8010ce0:	68bb      	ldr	r3, [r7, #8]
 8010ce2:	781a      	ldrb	r2, [r3, #0]
 8010ce4:	4b1f      	ldr	r3, [pc, #124]	@ (8010d64 <i2c1_master_tx+0x194>)
 8010ce6:	601a      	str	r2, [r3, #0]
		data++;
 8010ce8:	68bb      	ldr	r3, [r7, #8]
 8010cea:	3301      	adds	r3, #1
 8010cec:	60bb      	str	r3, [r7, #8]
	for (int i = 0; i < len; i++) {
 8010cee:	697b      	ldr	r3, [r7, #20]
 8010cf0:	3301      	adds	r3, #1
 8010cf2:	617b      	str	r3, [r7, #20]
 8010cf4:	697a      	ldr	r2, [r7, #20]
 8010cf6:	687b      	ldr	r3, [r7, #4]
 8010cf8:	429a      	cmp	r2, r3
 8010cfa:	dbbe      	blt.n	8010c7a <i2c1_master_tx+0xaa>
	}
	t0=millis();
 8010cfc:	f000 fefa 	bl	8011af4 <millis>
 8010d00:	6138      	str	r0, [r7, #16]
	//EV8_2: TXE != 1 or BTF !=1 --> wait
	while( (((*I2C1_SR1)&(0x1U<<7U))!= (0x1U<<7U)) || (((*I2C1_SR1)&(0x1U<<2U))!= (0x1U<<2U)) )
 8010d02:	e013      	b.n	8010d2c <i2c1_master_tx+0x15c>
	{
	 if(i2c_SR1_ERR()) return -1;
 8010d04:	f000 f976 	bl	8010ff4 <i2c_SR1_ERR>
 8010d08:	4603      	mov	r3, r0
 8010d0a:	2b00      	cmp	r3, #0
 8010d0c:	d002      	beq.n	8010d14 <i2c1_master_tx+0x144>
 8010d0e:	f04f 33ff 	mov.w	r3, #4294967295
 8010d12:	e01e      	b.n	8010d52 <i2c1_master_tx+0x182>
	 if ((uint32_t)(millis() - t0) > timeout_ms) return -2;
 8010d14:	f000 feee 	bl	8011af4 <millis>
 8010d18:	4602      	mov	r2, r0
 8010d1a:	693b      	ldr	r3, [r7, #16]
 8010d1c:	1ad3      	subs	r3, r2, r3
 8010d1e:	f241 3288 	movw	r2, #5000	@ 0x1388
 8010d22:	4293      	cmp	r3, r2
 8010d24:	d902      	bls.n	8010d2c <i2c1_master_tx+0x15c>
 8010d26:	f06f 0301 	mvn.w	r3, #1
 8010d2a:	e012      	b.n	8010d52 <i2c1_master_tx+0x182>
	while( (((*I2C1_SR1)&(0x1U<<7U))!= (0x1U<<7U)) || (((*I2C1_SR1)&(0x1U<<2U))!= (0x1U<<2U)) )
 8010d2c:	4b0c      	ldr	r3, [pc, #48]	@ (8010d60 <i2c1_master_tx+0x190>)
 8010d2e:	681b      	ldr	r3, [r3, #0]
 8010d30:	f003 0380 	and.w	r3, r3, #128	@ 0x80
 8010d34:	2b80      	cmp	r3, #128	@ 0x80
 8010d36:	d1e5      	bne.n	8010d04 <i2c1_master_tx+0x134>
 8010d38:	4b09      	ldr	r3, [pc, #36]	@ (8010d60 <i2c1_master_tx+0x190>)
 8010d3a:	681b      	ldr	r3, [r3, #0]
 8010d3c:	f003 0304 	and.w	r3, r3, #4
 8010d40:	2b04      	cmp	r3, #4
 8010d42:	d1df      	bne.n	8010d04 <i2c1_master_tx+0x134>
	}
	*I2C1_CR1|=(0x1U << 9U); //stop bit
 8010d44:	4b05      	ldr	r3, [pc, #20]	@ (8010d5c <i2c1_master_tx+0x18c>)
 8010d46:	681b      	ldr	r3, [r3, #0]
 8010d48:	4a04      	ldr	r2, [pc, #16]	@ (8010d5c <i2c1_master_tx+0x18c>)
 8010d4a:	f443 7300 	orr.w	r3, r3, #512	@ 0x200
 8010d4e:	6013      	str	r3, [r2, #0]
	return 0;
 8010d50:	2300      	movs	r3, #0
}
 8010d52:	4618      	mov	r0, r3
 8010d54:	3718      	adds	r7, #24
 8010d56:	46bd      	mov	sp, r7
 8010d58:	bd80      	pop	{r7, pc}
 8010d5a:	bf00      	nop
 8010d5c:	40005400 	.word	0x40005400
 8010d60:	40005414 	.word	0x40005414
 8010d64:	40005410 	.word	0x40005410
 8010d68:	40005418 	.word	0x40005418

08010d6c <i2c1_master_rx>:

int i2c1_master_rx(uint8_t addr_8bit,uint8_t* msg,int len){
 8010d6c:	b580      	push	{r7, lr}
 8010d6e:	b086      	sub	sp, #24
 8010d70:	af00      	add	r7, sp, #0
 8010d72:	4603      	mov	r3, r0
 8010d74:	60b9      	str	r1, [r7, #8]
 8010d76:	607a      	str	r2, [r7, #4]
 8010d78:	73fb      	strb	r3, [r7, #15]

	uint32_t t0;

	*I2C1_CR1|=(0x1U << 10U); //SET CR1 ACK
 8010d7a:	4b9a      	ldr	r3, [pc, #616]	@ (8010fe4 <i2c1_master_rx+0x278>)
 8010d7c:	681b      	ldr	r3, [r3, #0]
 8010d7e:	4a99      	ldr	r2, [pc, #612]	@ (8010fe4 <i2c1_master_rx+0x278>)
 8010d80:	f443 6380 	orr.w	r3, r3, #1024	@ 0x400
 8010d84:	6013      	str	r3, [r2, #0]
	*I2C1_CR1|=(0x1U << 8U); //start bit
 8010d86:	4b97      	ldr	r3, [pc, #604]	@ (8010fe4 <i2c1_master_rx+0x278>)
 8010d88:	681b      	ldr	r3, [r3, #0]
 8010d8a:	4a96      	ldr	r2, [pc, #600]	@ (8010fe4 <i2c1_master_rx+0x278>)
 8010d8c:	f443 7380 	orr.w	r3, r3, #256	@ 0x100
 8010d90:	6013      	str	r3, [r2, #0]

	t0 = millis();
 8010d92:	f000 feaf 	bl	8011af4 <millis>
 8010d96:	6178      	str	r0, [r7, #20]
	while(((*I2C1_SR1)&0x1U)!=0x1U)//EV5  RF:853p
 8010d98:	e013      	b.n	8010dc2 <i2c1_master_rx+0x56>
	{
		 if(i2c_SR1_ERR()) return -1;
 8010d9a:	f000 f92b 	bl	8010ff4 <i2c_SR1_ERR>
 8010d9e:	4603      	mov	r3, r0
 8010da0:	2b00      	cmp	r3, #0
 8010da2:	d002      	beq.n	8010daa <i2c1_master_rx+0x3e>
 8010da4:	f04f 33ff 	mov.w	r3, #4294967295
 8010da8:	e117      	b.n	8010fda <i2c1_master_rx+0x26e>
		 if ((uint32_t)(millis() - t0) > timeout_ms) return -2;
 8010daa:	f000 fea3 	bl	8011af4 <millis>
 8010dae:	4602      	mov	r2, r0
 8010db0:	697b      	ldr	r3, [r7, #20]
 8010db2:	1ad3      	subs	r3, r2, r3
 8010db4:	f241 3288 	movw	r2, #5000	@ 0x1388
 8010db8:	4293      	cmp	r3, r2
 8010dba:	d902      	bls.n	8010dc2 <i2c1_master_rx+0x56>
 8010dbc:	f06f 0301 	mvn.w	r3, #1
 8010dc0:	e10b      	b.n	8010fda <i2c1_master_rx+0x26e>
	while(((*I2C1_SR1)&0x1U)!=0x1U)//EV5  RF:853p
 8010dc2:	4b89      	ldr	r3, [pc, #548]	@ (8010fe8 <i2c1_master_rx+0x27c>)
 8010dc4:	681b      	ldr	r3, [r3, #0]
 8010dc6:	f003 0301 	and.w	r3, r3, #1
 8010dca:	2b01      	cmp	r3, #1
 8010dcc:	d1e5      	bne.n	8010d9a <i2c1_master_rx+0x2e>
	}
	(void)*I2C1_SR1; //clear RF:871p SB
 8010dce:	4b86      	ldr	r3, [pc, #536]	@ (8010fe8 <i2c1_master_rx+0x27c>)
 8010dd0:	681b      	ldr	r3, [r3, #0]
	*I2C1_DR=addr_8bit | 1U;
 8010dd2:	7bfb      	ldrb	r3, [r7, #15]
 8010dd4:	f043 0301 	orr.w	r3, r3, #1
 8010dd8:	b2da      	uxtb	r2, r3
 8010dda:	4b84      	ldr	r3, [pc, #528]	@ (8010fec <i2c1_master_rx+0x280>)
 8010ddc:	601a      	str	r2, [r3, #0]

	t0 = millis();
 8010dde:	f000 fe89 	bl	8011af4 <millis>
 8010de2:	6178      	str	r0, [r7, #20]
	while(((*I2C1_SR1)&0x2U)!=0x2U) //EV6....
 8010de4:	e013      	b.n	8010e0e <i2c1_master_rx+0xa2>
	{
	  if(i2c_SR1_ERR()) return -1;
 8010de6:	f000 f905 	bl	8010ff4 <i2c_SR1_ERR>
 8010dea:	4603      	mov	r3, r0
 8010dec:	2b00      	cmp	r3, #0
 8010dee:	d002      	beq.n	8010df6 <i2c1_master_rx+0x8a>
 8010df0:	f04f 33ff 	mov.w	r3, #4294967295
 8010df4:	e0f1      	b.n	8010fda <i2c1_master_rx+0x26e>
	  if ((uint32_t)(millis() - t0) > timeout_ms) return -2;
 8010df6:	f000 fe7d 	bl	8011af4 <millis>
 8010dfa:	4602      	mov	r2, r0
 8010dfc:	697b      	ldr	r3, [r7, #20]
 8010dfe:	1ad3      	subs	r3, r2, r3
 8010e00:	f241 3288 	movw	r2, #5000	@ 0x1388
 8010e04:	4293      	cmp	r3, r2
 8010e06:	d902      	bls.n	8010e0e <i2c1_master_rx+0xa2>
 8010e08:	f06f 0301 	mvn.w	r3, #1
 8010e0c:	e0e5      	b.n	8010fda <i2c1_master_rx+0x26e>
	while(((*I2C1_SR1)&0x2U)!=0x2U) //EV6....
 8010e0e:	4b76      	ldr	r3, [pc, #472]	@ (8010fe8 <i2c1_master_rx+0x27c>)
 8010e10:	681b      	ldr	r3, [r3, #0]
 8010e12:	f003 0302 	and.w	r3, r3, #2
 8010e16:	2b02      	cmp	r3, #2
 8010e18:	d1e5      	bne.n	8010de6 <i2c1_master_rx+0x7a>
	}
	switch (len) {
 8010e1a:	687b      	ldr	r3, [r7, #4]
 8010e1c:	2b02      	cmp	r3, #2
 8010e1e:	d147      	bne.n	8010eb0 <i2c1_master_rx+0x144>
	case 2:
		*I2C1_CR1 &= ~(0x1U << 10U); //RESET CR1 ACK
 8010e20:	4b70      	ldr	r3, [pc, #448]	@ (8010fe4 <i2c1_master_rx+0x278>)
 8010e22:	681b      	ldr	r3, [r3, #0]
 8010e24:	4a6f      	ldr	r2, [pc, #444]	@ (8010fe4 <i2c1_master_rx+0x278>)
 8010e26:	f423 6380 	bic.w	r3, r3, #1024	@ 0x400
 8010e2a:	6013      	str	r3, [r2, #0]
		*I2C1_CR1 |= (0x1U << 11U); //POS HIGH
 8010e2c:	4b6d      	ldr	r3, [pc, #436]	@ (8010fe4 <i2c1_master_rx+0x278>)
 8010e2e:	681b      	ldr	r3, [r3, #0]
 8010e30:	4a6c      	ldr	r2, [pc, #432]	@ (8010fe4 <i2c1_master_rx+0x278>)
 8010e32:	f443 6300 	orr.w	r3, r3, #2048	@ 0x800
 8010e36:	6013      	str	r3, [r2, #0]
		(void) *I2C1_SR1;
 8010e38:	4b6b      	ldr	r3, [pc, #428]	@ (8010fe8 <i2c1_master_rx+0x27c>)
 8010e3a:	681b      	ldr	r3, [r3, #0]
		(void) *I2C1_SR2; //clear RF:871p ADDR
 8010e3c:	4b6c      	ldr	r3, [pc, #432]	@ (8010ff0 <i2c1_master_rx+0x284>)
 8010e3e:	681b      	ldr	r3, [r3, #0]
		t0=millis();
 8010e40:	f000 fe58 	bl	8011af4 <millis>
 8010e44:	6178      	str	r0, [r7, #20]
		while (((*I2C1_SR1) & (0x1U << 2U)) == 0)
 8010e46:	e013      	b.n	8010e70 <i2c1_master_rx+0x104>
		{
					 if(i2c_SR1_ERR()) return -1;
 8010e48:	f000 f8d4 	bl	8010ff4 <i2c_SR1_ERR>
 8010e4c:	4603      	mov	r3, r0
 8010e4e:	2b00      	cmp	r3, #0
 8010e50:	d002      	beq.n	8010e58 <i2c1_master_rx+0xec>
 8010e52:	f04f 33ff 	mov.w	r3, #4294967295
 8010e56:	e0c0      	b.n	8010fda <i2c1_master_rx+0x26e>
					 if ((uint32_t)(millis() - t0) > timeout_ms) return -2;
 8010e58:	f000 fe4c 	bl	8011af4 <millis>
 8010e5c:	4602      	mov	r2, r0
 8010e5e:	697b      	ldr	r3, [r7, #20]
 8010e60:	1ad3      	subs	r3, r2, r3
 8010e62:	f241 3288 	movw	r2, #5000	@ 0x1388
 8010e66:	4293      	cmp	r3, r2
 8010e68:	d902      	bls.n	8010e70 <i2c1_master_rx+0x104>
 8010e6a:	f06f 0301 	mvn.w	r3, #1
 8010e6e:	e0b4      	b.n	8010fda <i2c1_master_rx+0x26e>
		while (((*I2C1_SR1) & (0x1U << 2U)) == 0)
 8010e70:	4b5d      	ldr	r3, [pc, #372]	@ (8010fe8 <i2c1_master_rx+0x27c>)
 8010e72:	681b      	ldr	r3, [r3, #0]
 8010e74:	f003 0304 	and.w	r3, r3, #4
 8010e78:	2b00      	cmp	r3, #0
 8010e7a:	d0e5      	beq.n	8010e48 <i2c1_master_rx+0xdc>
		}
		*I2C1_CR1 |= (0x1U << 9U); //stop bit
 8010e7c:	4b59      	ldr	r3, [pc, #356]	@ (8010fe4 <i2c1_master_rx+0x278>)
 8010e7e:	681b      	ldr	r3, [r3, #0]
 8010e80:	4a58      	ldr	r2, [pc, #352]	@ (8010fe4 <i2c1_master_rx+0x278>)
 8010e82:	f443 7300 	orr.w	r3, r3, #512	@ 0x200
 8010e86:	6013      	str	r3, [r2, #0]
		*msg = *I2C1_DR;
 8010e88:	4b58      	ldr	r3, [pc, #352]	@ (8010fec <i2c1_master_rx+0x280>)
 8010e8a:	681b      	ldr	r3, [r3, #0]
 8010e8c:	b2da      	uxtb	r2, r3
 8010e8e:	68bb      	ldr	r3, [r7, #8]
 8010e90:	701a      	strb	r2, [r3, #0]
		msg++;
 8010e92:	68bb      	ldr	r3, [r7, #8]
 8010e94:	3301      	adds	r3, #1
 8010e96:	60bb      	str	r3, [r7, #8]
		*msg = *I2C1_DR;
 8010e98:	4b54      	ldr	r3, [pc, #336]	@ (8010fec <i2c1_master_rx+0x280>)
 8010e9a:	681b      	ldr	r3, [r3, #0]
 8010e9c:	b2da      	uxtb	r2, r3
 8010e9e:	68bb      	ldr	r3, [r7, #8]
 8010ea0:	701a      	strb	r2, [r3, #0]

		*I2C1_CR1 &= ~(0x1U << 11U); //POS RESET
 8010ea2:	4b50      	ldr	r3, [pc, #320]	@ (8010fe4 <i2c1_master_rx+0x278>)
 8010ea4:	681b      	ldr	r3, [r3, #0]
 8010ea6:	4a4f      	ldr	r2, [pc, #316]	@ (8010fe4 <i2c1_master_rx+0x278>)
 8010ea8:	f423 6300 	bic.w	r3, r3, #2048	@ 0x800
 8010eac:	6013      	str	r3, [r2, #0]
		break;
 8010eae:	e08d      	b.n	8010fcc <i2c1_master_rx+0x260>
	default :
		 (void)*I2C1_SR1;
 8010eb0:	4b4d      	ldr	r3, [pc, #308]	@ (8010fe8 <i2c1_master_rx+0x27c>)
 8010eb2:	681b      	ldr	r3, [r3, #0]
		 (void)*I2C1_SR2; //clear ADDR
 8010eb4:	4b4e      	ldr	r3, [pc, #312]	@ (8010ff0 <i2c1_master_rx+0x284>)
 8010eb6:	681b      	ldr	r3, [r3, #0]
		while(len>3) {
 8010eb8:	e028      	b.n	8010f0c <i2c1_master_rx+0x1a0>
			t0 = millis();
 8010eba:	f000 fe1b 	bl	8011af4 <millis>
 8010ebe:	6178      	str	r0, [r7, #20]
			while (((*I2C1_SR1) & (0x1U << 6U)) != (0x1U << 6U)) //EV7
 8010ec0:	e013      	b.n	8010eea <i2c1_master_rx+0x17e>
			{
			 if(i2c_SR1_ERR()) return -1;
 8010ec2:	f000 f897 	bl	8010ff4 <i2c_SR1_ERR>
 8010ec6:	4603      	mov	r3, r0
 8010ec8:	2b00      	cmp	r3, #0
 8010eca:	d002      	beq.n	8010ed2 <i2c1_master_rx+0x166>
 8010ecc:	f04f 33ff 	mov.w	r3, #4294967295
 8010ed0:	e083      	b.n	8010fda <i2c1_master_rx+0x26e>
			 if ((uint32_t)(millis() - t0) > timeout_ms) return -2;
 8010ed2:	f000 fe0f 	bl	8011af4 <millis>
 8010ed6:	4602      	mov	r2, r0
 8010ed8:	697b      	ldr	r3, [r7, #20]
 8010eda:	1ad3      	subs	r3, r2, r3
 8010edc:	f241 3288 	movw	r2, #5000	@ 0x1388
 8010ee0:	4293      	cmp	r3, r2
 8010ee2:	d902      	bls.n	8010eea <i2c1_master_rx+0x17e>
 8010ee4:	f06f 0301 	mvn.w	r3, #1
 8010ee8:	e077      	b.n	8010fda <i2c1_master_rx+0x26e>
			while (((*I2C1_SR1) & (0x1U << 6U)) != (0x1U << 6U)) //EV7
 8010eea:	4b3f      	ldr	r3, [pc, #252]	@ (8010fe8 <i2c1_master_rx+0x27c>)
 8010eec:	681b      	ldr	r3, [r3, #0]
 8010eee:	f003 0340 	and.w	r3, r3, #64	@ 0x40
 8010ef2:	2b40      	cmp	r3, #64	@ 0x40
 8010ef4:	d1e5      	bne.n	8010ec2 <i2c1_master_rx+0x156>
			}
			*msg = *I2C1_DR;
 8010ef6:	4b3d      	ldr	r3, [pc, #244]	@ (8010fec <i2c1_master_rx+0x280>)
 8010ef8:	681b      	ldr	r3, [r3, #0]
 8010efa:	b2da      	uxtb	r2, r3
 8010efc:	68bb      	ldr	r3, [r7, #8]
 8010efe:	701a      	strb	r2, [r3, #0]
			msg++;
 8010f00:	68bb      	ldr	r3, [r7, #8]
 8010f02:	3301      	adds	r3, #1
 8010f04:	60bb      	str	r3, [r7, #8]
			len--;
 8010f06:	687b      	ldr	r3, [r7, #4]
 8010f08:	3b01      	subs	r3, #1
 8010f0a:	607b      	str	r3, [r7, #4]
		while(len>3) {
 8010f0c:	687b      	ldr	r3, [r7, #4]
 8010f0e:	2b03      	cmp	r3, #3
 8010f10:	dcd3      	bgt.n	8010eba <i2c1_master_rx+0x14e>
		}
		t0 = millis();
 8010f12:	f000 fdef 	bl	8011af4 <millis>
 8010f16:	6178      	str	r0, [r7, #20]
		while (((*I2C1_SR1) & (0x1U << 2U)) == 0) //BTF == 1 -> break
 8010f18:	e013      	b.n	8010f42 <i2c1_master_rx+0x1d6>
		{
			 if(i2c_SR1_ERR()) return -1;
 8010f1a:	f000 f86b 	bl	8010ff4 <i2c_SR1_ERR>
 8010f1e:	4603      	mov	r3, r0
 8010f20:	2b00      	cmp	r3, #0
 8010f22:	d002      	beq.n	8010f2a <i2c1_master_rx+0x1be>
 8010f24:	f04f 33ff 	mov.w	r3, #4294967295
 8010f28:	e057      	b.n	8010fda <i2c1_master_rx+0x26e>
			 if ((uint32_t)(millis() - t0) > timeout_ms) return -2;
 8010f2a:	f000 fde3 	bl	8011af4 <millis>
 8010f2e:	4602      	mov	r2, r0
 8010f30:	697b      	ldr	r3, [r7, #20]
 8010f32:	1ad3      	subs	r3, r2, r3
 8010f34:	f241 3288 	movw	r2, #5000	@ 0x1388
 8010f38:	4293      	cmp	r3, r2
 8010f3a:	d902      	bls.n	8010f42 <i2c1_master_rx+0x1d6>
 8010f3c:	f06f 0301 	mvn.w	r3, #1
 8010f40:	e04b      	b.n	8010fda <i2c1_master_rx+0x26e>
		while (((*I2C1_SR1) & (0x1U << 2U)) == 0) //BTF == 1 -> break
 8010f42:	4b29      	ldr	r3, [pc, #164]	@ (8010fe8 <i2c1_master_rx+0x27c>)
 8010f44:	681b      	ldr	r3, [r3, #0]
 8010f46:	f003 0304 	and.w	r3, r3, #4
 8010f4a:	2b00      	cmp	r3, #0
 8010f4c:	d0e5      	beq.n	8010f1a <i2c1_master_rx+0x1ae>
		}
		*I2C1_CR1 &= ~(0x1U << 10U); //RESET CR1 ACK
 8010f4e:	4b25      	ldr	r3, [pc, #148]	@ (8010fe4 <i2c1_master_rx+0x278>)
 8010f50:	681b      	ldr	r3, [r3, #0]
 8010f52:	4a24      	ldr	r2, [pc, #144]	@ (8010fe4 <i2c1_master_rx+0x278>)
 8010f54:	f423 6380 	bic.w	r3, r3, #1024	@ 0x400
 8010f58:	6013      	str	r3, [r2, #0]
		*msg = *I2C1_DR; // READ len-2
 8010f5a:	4b24      	ldr	r3, [pc, #144]	@ (8010fec <i2c1_master_rx+0x280>)
 8010f5c:	681b      	ldr	r3, [r3, #0]
 8010f5e:	b2da      	uxtb	r2, r3
 8010f60:	68bb      	ldr	r3, [r7, #8]
 8010f62:	701a      	strb	r2, [r3, #0]
		msg++;
 8010f64:	68bb      	ldr	r3, [r7, #8]
 8010f66:	3301      	adds	r3, #1
 8010f68:	60bb      	str	r3, [r7, #8]

		t0 = millis();
 8010f6a:	f000 fdc3 	bl	8011af4 <millis>
 8010f6e:	6178      	str	r0, [r7, #20]
		while (((*I2C1_SR1) & (0x1U << 2U)) == 0) //BTF == 1 -> break
 8010f70:	e013      	b.n	8010f9a <i2c1_master_rx+0x22e>
		{
			 if(i2c_SR1_ERR()) return -1;
 8010f72:	f000 f83f 	bl	8010ff4 <i2c_SR1_ERR>
 8010f76:	4603      	mov	r3, r0
 8010f78:	2b00      	cmp	r3, #0
 8010f7a:	d002      	beq.n	8010f82 <i2c1_master_rx+0x216>
 8010f7c:	f04f 33ff 	mov.w	r3, #4294967295
 8010f80:	e02b      	b.n	8010fda <i2c1_master_rx+0x26e>
			 if ((uint32_t)(millis() - t0) > timeout_ms) return -2;
 8010f82:	f000 fdb7 	bl	8011af4 <millis>
 8010f86:	4602      	mov	r2, r0
 8010f88:	697b      	ldr	r3, [r7, #20]
 8010f8a:	1ad3      	subs	r3, r2, r3
 8010f8c:	f241 3288 	movw	r2, #5000	@ 0x1388
 8010f90:	4293      	cmp	r3, r2
 8010f92:	d902      	bls.n	8010f9a <i2c1_master_rx+0x22e>
 8010f94:	f06f 0301 	mvn.w	r3, #1
 8010f98:	e01f      	b.n	8010fda <i2c1_master_rx+0x26e>
		while (((*I2C1_SR1) & (0x1U << 2U)) == 0) //BTF == 1 -> break
 8010f9a:	4b13      	ldr	r3, [pc, #76]	@ (8010fe8 <i2c1_master_rx+0x27c>)
 8010f9c:	681b      	ldr	r3, [r3, #0]
 8010f9e:	f003 0304 	and.w	r3, r3, #4
 8010fa2:	2b00      	cmp	r3, #0
 8010fa4:	d0e5      	beq.n	8010f72 <i2c1_master_rx+0x206>
		}
		*I2C1_CR1 |= (0x1U << 9U); //stop bit
 8010fa6:	4b0f      	ldr	r3, [pc, #60]	@ (8010fe4 <i2c1_master_rx+0x278>)
 8010fa8:	681b      	ldr	r3, [r3, #0]
 8010faa:	4a0e      	ldr	r2, [pc, #56]	@ (8010fe4 <i2c1_master_rx+0x278>)
 8010fac:	f443 7300 	orr.w	r3, r3, #512	@ 0x200
 8010fb0:	6013      	str	r3, [r2, #0]
		*msg = *I2C1_DR; // READ len-1
 8010fb2:	4b0e      	ldr	r3, [pc, #56]	@ (8010fec <i2c1_master_rx+0x280>)
 8010fb4:	681b      	ldr	r3, [r3, #0]
 8010fb6:	b2da      	uxtb	r2, r3
 8010fb8:	68bb      	ldr	r3, [r7, #8]
 8010fba:	701a      	strb	r2, [r3, #0]
		msg++;
 8010fbc:	68bb      	ldr	r3, [r7, #8]
 8010fbe:	3301      	adds	r3, #1
 8010fc0:	60bb      	str	r3, [r7, #8]
		*msg = *I2C1_DR; // READ len
 8010fc2:	4b0a      	ldr	r3, [pc, #40]	@ (8010fec <i2c1_master_rx+0x280>)
 8010fc4:	681b      	ldr	r3, [r3, #0]
 8010fc6:	b2da      	uxtb	r2, r3
 8010fc8:	68bb      	ldr	r3, [r7, #8]
 8010fca:	701a      	strb	r2, [r3, #0]
	}
	*I2C1_CR1|=(0x1U << 10U); //SET CR1 ACK
 8010fcc:	4b05      	ldr	r3, [pc, #20]	@ (8010fe4 <i2c1_master_rx+0x278>)
 8010fce:	681b      	ldr	r3, [r3, #0]
 8010fd0:	4a04      	ldr	r2, [pc, #16]	@ (8010fe4 <i2c1_master_rx+0x278>)
 8010fd2:	f443 6380 	orr.w	r3, r3, #1024	@ 0x400
 8010fd6:	6013      	str	r3, [r2, #0]
	return 0;
 8010fd8:	2300      	movs	r3, #0
}
 8010fda:	4618      	mov	r0, r3
 8010fdc:	3718      	adds	r7, #24
 8010fde:	46bd      	mov	sp, r7
 8010fe0:	bd80      	pop	{r7, pc}
 8010fe2:	bf00      	nop
 8010fe4:	40005400 	.word	0x40005400
 8010fe8:	40005414 	.word	0x40005414
 8010fec:	40005410 	.word	0x40005410
 8010ff0:	40005418 	.word	0x40005418

08010ff4 <i2c_SR1_ERR>:

	return 0;

}

int i2c_SR1_ERR(void) {
 8010ff4:	b480      	push	{r7}
 8010ff6:	af00      	add	r7, sp, #0


	if ((*I2C1_SR1 & (1U << 10)) || (*I2C1_SR1 & (1U << 9)) || (*I2C1_SR1 & (1U << 8))) {  // AF,ARLO,BERR
 8010ff8:	4b19      	ldr	r3, [pc, #100]	@ (8011060 <i2c_SR1_ERR+0x6c>)
 8010ffa:	681b      	ldr	r3, [r3, #0]
 8010ffc:	f403 6380 	and.w	r3, r3, #1024	@ 0x400
 8011000:	2b00      	cmp	r3, #0
 8011002:	d10b      	bne.n	801101c <i2c_SR1_ERR+0x28>
 8011004:	4b16      	ldr	r3, [pc, #88]	@ (8011060 <i2c_SR1_ERR+0x6c>)
 8011006:	681b      	ldr	r3, [r3, #0]
 8011008:	f403 7300 	and.w	r3, r3, #512	@ 0x200
 801100c:	2b00      	cmp	r3, #0
 801100e:	d105      	bne.n	801101c <i2c_SR1_ERR+0x28>
 8011010:	4b13      	ldr	r3, [pc, #76]	@ (8011060 <i2c_SR1_ERR+0x6c>)
 8011012:	681b      	ldr	r3, [r3, #0]
 8011014:	f403 7380 	and.w	r3, r3, #256	@ 0x100
 8011018:	2b00      	cmp	r3, #0
 801101a:	d01a      	beq.n	8011052 <i2c_SR1_ERR+0x5e>
		*I2C1_SR1 &= ~(1U << 10); // AF clear
 801101c:	4b10      	ldr	r3, [pc, #64]	@ (8011060 <i2c_SR1_ERR+0x6c>)
 801101e:	681b      	ldr	r3, [r3, #0]
 8011020:	4a0f      	ldr	r2, [pc, #60]	@ (8011060 <i2c_SR1_ERR+0x6c>)
 8011022:	f423 6380 	bic.w	r3, r3, #1024	@ 0x400
 8011026:	6013      	str	r3, [r2, #0]
		*I2C1_SR1 &= ~(1U << 9); //  ARLO
 8011028:	4b0d      	ldr	r3, [pc, #52]	@ (8011060 <i2c_SR1_ERR+0x6c>)
 801102a:	681b      	ldr	r3, [r3, #0]
 801102c:	4a0c      	ldr	r2, [pc, #48]	@ (8011060 <i2c_SR1_ERR+0x6c>)
 801102e:	f423 7300 	bic.w	r3, r3, #512	@ 0x200
 8011032:	6013      	str	r3, [r2, #0]
		*I2C1_SR1 &= ~(1U << 8); //  BERR
 8011034:	4b0a      	ldr	r3, [pc, #40]	@ (8011060 <i2c_SR1_ERR+0x6c>)
 8011036:	681b      	ldr	r3, [r3, #0]
 8011038:	4a09      	ldr	r2, [pc, #36]	@ (8011060 <i2c_SR1_ERR+0x6c>)
 801103a:	f423 7380 	bic.w	r3, r3, #256	@ 0x100
 801103e:	6013      	str	r3, [r2, #0]
		*I2C1_CR1 |= (1U << 9);
 8011040:	4b08      	ldr	r3, [pc, #32]	@ (8011064 <i2c_SR1_ERR+0x70>)
 8011042:	681b      	ldr	r3, [r3, #0]
 8011044:	4a07      	ldr	r2, [pc, #28]	@ (8011064 <i2c_SR1_ERR+0x70>)
 8011046:	f443 7300 	orr.w	r3, r3, #512	@ 0x200
 801104a:	6013      	str	r3, [r2, #0]
	 return -1;
 801104c:	f04f 33ff 	mov.w	r3, #4294967295
 8011050:	e000      	b.n	8011054 <i2c_SR1_ERR+0x60>
	}
	return 0;
 8011052:	2300      	movs	r3, #0
}
 8011054:	4618      	mov	r0, r3
 8011056:	46bd      	mov	sp, r7
 8011058:	f85d 7b04 	ldr.w	r7, [sp], #4
 801105c:	4770      	bx	lr
 801105e:	bf00      	nop
 8011060:	40005414 	.word	0x40005414
 8011064:	40005400 	.word	0x40005400

08011068 <at24c256_write>:

int at24c256_write(uint16_t mem_addr, const uint8_t* data, uint16_t len)
{
 8011068:	b580      	push	{r7, lr}
 801106a:	b096      	sub	sp, #88	@ 0x58
 801106c:	af00      	add	r7, sp, #0
 801106e:	4603      	mov	r3, r0
 8011070:	6039      	str	r1, [r7, #0]
 8011072:	80fb      	strh	r3, [r7, #6]
 8011074:	4613      	mov	r3, r2
 8011076:	80bb      	strh	r3, [r7, #4]
    // AT24C256 : 2byte
    uint8_t buf[2 + 64]; // 2B addr + 64B data
    if (len > 64) return -1;
 8011078:	88bb      	ldrh	r3, [r7, #4]
 801107a:	2b40      	cmp	r3, #64	@ 0x40
 801107c:	d902      	bls.n	8011084 <at24c256_write+0x1c>
 801107e:	f04f 33ff 	mov.w	r3, #4294967295
 8011082:	e02e      	b.n	80110e2 <at24c256_write+0x7a>

    buf[0] = (uint8_t)(mem_addr >> 0x8U);
 8011084:	88fb      	ldrh	r3, [r7, #6]
 8011086:	0a1b      	lsrs	r3, r3, #8
 8011088:	b29b      	uxth	r3, r3
 801108a:	b2db      	uxtb	r3, r3
 801108c:	733b      	strb	r3, [r7, #12]
    buf[1] = (uint8_t)(mem_addr & 0xFF);
 801108e:	88fb      	ldrh	r3, [r7, #6]
 8011090:	b2db      	uxtb	r3, r3
 8011092:	737b      	strb	r3, [r7, #13]
    for (uint16_t i = 0; i < len; i++) buf[2 + i] = data[i];
 8011094:	2300      	movs	r3, #0
 8011096:	f8a7 3056 	strh.w	r3, [r7, #86]	@ 0x56
 801109a:	e010      	b.n	80110be <at24c256_write+0x56>
 801109c:	f8b7 3056 	ldrh.w	r3, [r7, #86]	@ 0x56
 80110a0:	683a      	ldr	r2, [r7, #0]
 80110a2:	441a      	add	r2, r3
 80110a4:	f8b7 3056 	ldrh.w	r3, [r7, #86]	@ 0x56
 80110a8:	3302      	adds	r3, #2
 80110aa:	7812      	ldrb	r2, [r2, #0]
 80110ac:	3358      	adds	r3, #88	@ 0x58
 80110ae:	443b      	add	r3, r7
 80110b0:	f803 2c4c 	strb.w	r2, [r3, #-76]
 80110b4:	f8b7 3056 	ldrh.w	r3, [r7, #86]	@ 0x56
 80110b8:	3301      	adds	r3, #1
 80110ba:	f8a7 3056 	strh.w	r3, [r7, #86]	@ 0x56
 80110be:	f8b7 2056 	ldrh.w	r2, [r7, #86]	@ 0x56
 80110c2:	88bb      	ldrh	r3, [r7, #4]
 80110c4:	429a      	cmp	r2, r3
 80110c6:	d3e9      	bcc.n	801109c <at24c256_write+0x34>

    int r = i2c1_master_tx(AT24_ADDR_8BIT, buf, 2 + len);
 80110c8:	88bb      	ldrh	r3, [r7, #4]
 80110ca:	1c9a      	adds	r2, r3, #2
 80110cc:	f107 030c 	add.w	r3, r7, #12
 80110d0:	4619      	mov	r1, r3
 80110d2:	20a0      	movs	r0, #160	@ 0xa0
 80110d4:	f7ff fd7c 	bl	8010bd0 <i2c1_master_tx>
 80110d8:	6538      	str	r0, [r7, #80]	@ 0x50

    // EEPROM write cycle
    delay(5);
 80110da:	2005      	movs	r0, #5
 80110dc:	f000 fcf4 	bl	8011ac8 <delay>

    return r;
 80110e0:	6d3b      	ldr	r3, [r7, #80]	@ 0x50
}
 80110e2:	4618      	mov	r0, r3
 80110e4:	3758      	adds	r7, #88	@ 0x58
 80110e6:	46bd      	mov	sp, r7
 80110e8:	bd80      	pop	{r7, pc}

080110ea <at24c256_read>:

//read: 2byte + stop + (read)
int at24c256_read(uint16_t mem, uint8_t* out, uint16_t len)
{
 80110ea:	b580      	push	{r7, lr}
 80110ec:	b084      	sub	sp, #16
 80110ee:	af00      	add	r7, sp, #0
 80110f0:	4603      	mov	r3, r0
 80110f2:	6039      	str	r1, [r7, #0]
 80110f4:	80fb      	strh	r3, [r7, #6]
 80110f6:	4613      	mov	r3, r2
 80110f8:	80bb      	strh	r3, [r7, #4]
    uint8_t a[2] = { (uint8_t)(mem >> 0x8U), (uint8_t)(mem & 0xFF) };
 80110fa:	88fb      	ldrh	r3, [r7, #6]
 80110fc:	0a1b      	lsrs	r3, r3, #8
 80110fe:	b29b      	uxth	r3, r3
 8011100:	b2db      	uxtb	r3, r3
 8011102:	723b      	strb	r3, [r7, #8]
 8011104:	88fb      	ldrh	r3, [r7, #6]
 8011106:	b2db      	uxtb	r3, r3
 8011108:	727b      	strb	r3, [r7, #9]
    int r = i2c1_master_tx(AT24_ADDR_8BIT, a, 2);
 801110a:	f107 0308 	add.w	r3, r7, #8
 801110e:	2202      	movs	r2, #2
 8011110:	4619      	mov	r1, r3
 8011112:	20a0      	movs	r0, #160	@ 0xa0
 8011114:	f7ff fd5c 	bl	8010bd0 <i2c1_master_tx>
 8011118:	60f8      	str	r0, [r7, #12]
    if (r != 0) return -1;
 801111a:	68fb      	ldr	r3, [r7, #12]
 801111c:	2b00      	cmp	r3, #0
 801111e:	d002      	beq.n	8011126 <at24c256_read+0x3c>
 8011120:	f04f 33ff 	mov.w	r3, #4294967295
 8011124:	e006      	b.n	8011134 <at24c256_read+0x4a>
    return i2c1_master_rx(AT24_ADDR_8BIT, out, len);
 8011126:	88bb      	ldrh	r3, [r7, #4]
 8011128:	461a      	mov	r2, r3
 801112a:	6839      	ldr	r1, [r7, #0]
 801112c:	20a0      	movs	r0, #160	@ 0xa0
 801112e:	f7ff fe1d 	bl	8010d6c <i2c1_master_rx>
 8011132:	4603      	mov	r3, r0
}
 8011134:	4618      	mov	r0, r3
 8011136:	3710      	adds	r7, #16
 8011138:	46bd      	mov	sp, r7
 801113a:	bd80      	pop	{r7, pc}

0801113c <pcf_write_blocking>:
// 밑단 함수 타입
typedef void (*pcf_write_p)(uint8_t);

// 기본(blocking) 구현
static void pcf_write_blocking(uint8_t b)
{
 801113c:	b580      	push	{r7, lr}
 801113e:	b084      	sub	sp, #16
 8011140:	af00      	add	r7, sp, #0
 8011142:	4603      	mov	r3, r0
 8011144:	71fb      	strb	r3, [r7, #7]

	int a=i2c1_master_tx(LCD_ADDR_8BIT, &b, 1);
 8011146:	1dfb      	adds	r3, r7, #7
 8011148:	2201      	movs	r2, #1
 801114a:	4619      	mov	r1, r3
 801114c:	204e      	movs	r0, #78	@ 0x4e
 801114e:	f7ff fd3f 	bl	8010bd0 <i2c1_master_tx>
 8011152:	60f8      	str	r0, [r7, #12]
	if(a){while(1);}
 8011154:	68fb      	ldr	r3, [r7, #12]
 8011156:	2b00      	cmp	r3, #0
 8011158:	d001      	beq.n	801115e <pcf_write_blocking+0x22>
 801115a:	bf00      	nop
 801115c:	e7fd      	b.n	801115a <pcf_write_blocking+0x1e>
}
 801115e:	bf00      	nop
 8011160:	3710      	adds	r7, #16
 8011162:	46bd      	mov	sp, r7
 8011164:	bd80      	pop	{r7, pc}
	...

08011168 <pcf_write>:
// 현재 사용 중인 구현 포인터 (처음엔 blocking)
static pcf_write_p pcf_write_impl = pcf_write_blocking;

// lcd.c 내부에서만 쓰는 wrap
static inline void pcf_write(uint8_t b)
{
 8011168:	b580      	push	{r7, lr}
 801116a:	b082      	sub	sp, #8
 801116c:	af00      	add	r7, sp, #0
 801116e:	4603      	mov	r3, r0
 8011170:	71fb      	strb	r3, [r7, #7]
    pcf_write_impl(b);
 8011172:	4b04      	ldr	r3, [pc, #16]	@ (8011184 <pcf_write+0x1c>)
 8011174:	681b      	ldr	r3, [r3, #0]
 8011176:	79fa      	ldrb	r2, [r7, #7]
 8011178:	4610      	mov	r0, r2
 801117a:	4798      	blx	r3
}
 801117c:	bf00      	nop
 801117e:	3708      	adds	r7, #8
 8011180:	46bd      	mov	sp, r7
 8011182:	bd80      	pop	{r7, pc}
 8011184:	2000000c 	.word	0x2000000c

08011188 <lcd_send_nibble>:
/* --- low level write (현재는 blocking) --- */


/* --- 4bit 전송 --- */
static void lcd_send_nibble(uint8_t nibble, uint8_t rs)
{
 8011188:	b580      	push	{r7, lr}
 801118a:	b084      	sub	sp, #16
 801118c:	af00      	add	r7, sp, #0
 801118e:	4603      	mov	r3, r0
 8011190:	460a      	mov	r2, r1
 8011192:	71fb      	strb	r3, [r7, #7]
 8011194:	4613      	mov	r3, r2
 8011196:	71bb      	strb	r3, [r7, #6]
    uint8_t data = (uint8_t)((nibble & 0x0F) << 4); // D4..D7 -> P4..P7
 8011198:	79fb      	ldrb	r3, [r7, #7]
 801119a:	011b      	lsls	r3, r3, #4
 801119c:	73fb      	strb	r3, [r7, #15]

    data |= LCD_BL;          // backlight ON
 801119e:	7bfb      	ldrb	r3, [r7, #15]
 80111a0:	f043 0308 	orr.w	r3, r3, #8
 80111a4:	73fb      	strb	r3, [r7, #15]
    data &= (uint8_t)~LCD_RW;   // RW=0 (write only)
 80111a6:	7bfb      	ldrb	r3, [r7, #15]
 80111a8:	f023 0302 	bic.w	r3, r3, #2
 80111ac:	73fb      	strb	r3, [r7, #15]
    if (rs) data |= LCD_RS;
 80111ae:	79bb      	ldrb	r3, [r7, #6]
 80111b0:	2b00      	cmp	r3, #0
 80111b2:	d003      	beq.n	80111bc <lcd_send_nibble+0x34>
 80111b4:	7bfb      	ldrb	r3, [r7, #15]
 80111b6:	f043 0301 	orr.w	r3, r3, #1
 80111ba:	73fb      	strb	r3, [r7, #15]

    pcf_write((uint8_t)(data | LCD_EN));
 80111bc:	7bfb      	ldrb	r3, [r7, #15]
 80111be:	f043 0304 	orr.w	r3, r3, #4
 80111c2:	b2db      	uxtb	r3, r3
 80111c4:	4618      	mov	r0, r3
 80111c6:	f7ff ffcf 	bl	8011168 <pcf_write>
    //delay_us(50);
    delay(1);
 80111ca:	2001      	movs	r0, #1
 80111cc:	f000 fc7c 	bl	8011ac8 <delay>
    pcf_write((uint8_t)(data & (uint8_t)~LCD_EN));
 80111d0:	7bfb      	ldrb	r3, [r7, #15]
 80111d2:	f023 0304 	bic.w	r3, r3, #4
 80111d6:	b2db      	uxtb	r3, r3
 80111d8:	4618      	mov	r0, r3
 80111da:	f7ff ffc5 	bl	8011168 <pcf_write>
    //delay_us(50);
    delay(1);
 80111de:	2001      	movs	r0, #1
 80111e0:	f000 fc72 	bl	8011ac8 <delay>
}
 80111e4:	bf00      	nop
 80111e6:	3710      	adds	r7, #16
 80111e8:	46bd      	mov	sp, r7
 80111ea:	bd80      	pop	{r7, pc}

080111ec <lcd_cmd>:

/* --- command / data --- */
static void lcd_cmd(uint8_t cmd)
{
 80111ec:	b580      	push	{r7, lr}
 80111ee:	b082      	sub	sp, #8
 80111f0:	af00      	add	r7, sp, #0
 80111f2:	4603      	mov	r3, r0
 80111f4:	71fb      	strb	r3, [r7, #7]
    lcd_send_nibble((uint8_t)(cmd >> 4), 0);
 80111f6:	79fb      	ldrb	r3, [r7, #7]
 80111f8:	091b      	lsrs	r3, r3, #4
 80111fa:	b2db      	uxtb	r3, r3
 80111fc:	2100      	movs	r1, #0
 80111fe:	4618      	mov	r0, r3
 8011200:	f7ff ffc2 	bl	8011188 <lcd_send_nibble>
    lcd_send_nibble((uint8_t)(cmd & 0x0F), 0);
 8011204:	79fb      	ldrb	r3, [r7, #7]
 8011206:	f003 030f 	and.w	r3, r3, #15
 801120a:	b2db      	uxtb	r3, r3
 801120c:	2100      	movs	r1, #0
 801120e:	4618      	mov	r0, r3
 8011210:	f7ff ffba 	bl	8011188 <lcd_send_nibble>
    if (cmd == 0x01U || cmd == 0x02U) delay(2);
 8011214:	79fb      	ldrb	r3, [r7, #7]
 8011216:	2b01      	cmp	r3, #1
 8011218:	d002      	beq.n	8011220 <lcd_cmd+0x34>
 801121a:	79fb      	ldrb	r3, [r7, #7]
 801121c:	2b02      	cmp	r3, #2
 801121e:	d103      	bne.n	8011228 <lcd_cmd+0x3c>
 8011220:	2002      	movs	r0, #2
 8011222:	f000 fc51 	bl	8011ac8 <delay>
 8011226:	e003      	b.n	8011230 <lcd_cmd+0x44>
    else delay(1);
 8011228:	2001      	movs	r0, #1
 801122a:	f000 fc4d 	bl	8011ac8 <delay>
}
 801122e:	bf00      	nop
 8011230:	bf00      	nop
 8011232:	3708      	adds	r7, #8
 8011234:	46bd      	mov	sp, r7
 8011236:	bd80      	pop	{r7, pc}

08011238 <lcd_data>:

static void lcd_data(uint8_t ch)
{
 8011238:	b580      	push	{r7, lr}
 801123a:	b082      	sub	sp, #8
 801123c:	af00      	add	r7, sp, #0
 801123e:	4603      	mov	r3, r0
 8011240:	71fb      	strb	r3, [r7, #7]
    lcd_send_nibble((uint8_t)(ch >> 4), 1);
 8011242:	79fb      	ldrb	r3, [r7, #7]
 8011244:	091b      	lsrs	r3, r3, #4
 8011246:	b2db      	uxtb	r3, r3
 8011248:	2101      	movs	r1, #1
 801124a:	4618      	mov	r0, r3
 801124c:	f7ff ff9c 	bl	8011188 <lcd_send_nibble>
    lcd_send_nibble((uint8_t)(ch & 0x0F), 1);
 8011250:	79fb      	ldrb	r3, [r7, #7]
 8011252:	f003 030f 	and.w	r3, r3, #15
 8011256:	b2db      	uxtb	r3, r3
 8011258:	2101      	movs	r1, #1
 801125a:	4618      	mov	r0, r3
 801125c:	f7ff ff94 	bl	8011188 <lcd_send_nibble>
    delay(1);
 8011260:	2001      	movs	r0, #1
 8011262:	f000 fc31 	bl	8011ac8 <delay>
}
 8011266:	bf00      	nop
 8011268:	3708      	adds	r7, #8
 801126a:	46bd      	mov	sp, r7
 801126c:	bd80      	pop	{r7, pc}

0801126e <lcd_init>:

/* --- public API --- */
void lcd_init(void)
{
 801126e:	b580      	push	{r7, lr}
 8011270:	af00      	add	r7, sp, #0
    //dwt_init();
    delay(200);                 // power-up settle
 8011272:	20c8      	movs	r0, #200	@ 0xc8
 8011274:	f000 fc28 	bl	8011ac8 <delay>

    // HD44780 4-bit init sequence
    lcd_send_nibble(0x03, 0);
 8011278:	2100      	movs	r1, #0
 801127a:	2003      	movs	r0, #3
 801127c:	f7ff ff84 	bl	8011188 <lcd_send_nibble>
    delay(10);
 8011280:	200a      	movs	r0, #10
 8011282:	f000 fc21 	bl	8011ac8 <delay>
    lcd_send_nibble(0x03, 0);
 8011286:	2100      	movs	r1, #0
 8011288:	2003      	movs	r0, #3
 801128a:	f7ff ff7d 	bl	8011188 <lcd_send_nibble>
    delay(10);
 801128e:	200a      	movs	r0, #10
 8011290:	f000 fc1a 	bl	8011ac8 <delay>
    lcd_send_nibble(0x03, 0);
 8011294:	2100      	movs	r1, #0
 8011296:	2003      	movs	r0, #3
 8011298:	f7ff ff76 	bl	8011188 <lcd_send_nibble>
    delay(2);
 801129c:	2002      	movs	r0, #2
 801129e:	f000 fc13 	bl	8011ac8 <delay>
    lcd_send_nibble(0x02, 0);
 80112a2:	2100      	movs	r1, #0
 80112a4:	2002      	movs	r0, #2
 80112a6:	f7ff ff6f 	bl	8011188 <lcd_send_nibble>
    delay(2);
 80112aa:	2002      	movs	r0, #2
 80112ac:	f000 fc0c 	bl	8011ac8 <delay>

    lcd_cmd(0x28); // 4-bit, 2-line, 5x8
 80112b0:	2028      	movs	r0, #40	@ 0x28
 80112b2:	f7ff ff9b 	bl	80111ec <lcd_cmd>
    lcd_cmd(0x0C); // display ON, cursor OFF
 80112b6:	200c      	movs	r0, #12
 80112b8:	f7ff ff98 	bl	80111ec <lcd_cmd>
    lcd_cmd(0x06); // entry mode
 80112bc:	2006      	movs	r0, #6
 80112be:	f7ff ff95 	bl	80111ec <lcd_cmd>
    lcd_cmd(0x01); // clear
 80112c2:	2001      	movs	r0, #1
 80112c4:	f7ff ff92 	bl	80111ec <lcd_cmd>
    delay(5);
 80112c8:	2005      	movs	r0, #5
 80112ca:	f000 fbfd 	bl	8011ac8 <delay>
}
 80112ce:	bf00      	nop
 80112d0:	bd80      	pop	{r7, pc}

080112d2 <lcd_set_cursor>:

void lcd_set_cursor(uint8_t row, uint8_t col)
{
 80112d2:	b580      	push	{r7, lr}
 80112d4:	b084      	sub	sp, #16
 80112d6:	af00      	add	r7, sp, #0
 80112d8:	4603      	mov	r3, r0
 80112da:	460a      	mov	r2, r1
 80112dc:	71fb      	strb	r3, [r7, #7]
 80112de:	4613      	mov	r3, r2
 80112e0:	71bb      	strb	r3, [r7, #6]
    uint8_t addr = (row == 0U) ? 0x00U : 0x40U;
 80112e2:	79fb      	ldrb	r3, [r7, #7]
 80112e4:	2b00      	cmp	r3, #0
 80112e6:	d101      	bne.n	80112ec <lcd_set_cursor+0x1a>
 80112e8:	2300      	movs	r3, #0
 80112ea:	e000      	b.n	80112ee <lcd_set_cursor+0x1c>
 80112ec:	2340      	movs	r3, #64	@ 0x40
 80112ee:	73fb      	strb	r3, [r7, #15]
    lcd_cmd((uint8_t)(0x80U | (addr + col)));
 80112f0:	7bfa      	ldrb	r2, [r7, #15]
 80112f2:	79bb      	ldrb	r3, [r7, #6]
 80112f4:	4413      	add	r3, r2
 80112f6:	b2db      	uxtb	r3, r3
 80112f8:	f063 037f 	orn	r3, r3, #127	@ 0x7f
 80112fc:	b2db      	uxtb	r3, r3
 80112fe:	4618      	mov	r0, r3
 8011300:	f7ff ff74 	bl	80111ec <lcd_cmd>
}
 8011304:	bf00      	nop
 8011306:	3710      	adds	r7, #16
 8011308:	46bd      	mov	sp, r7
 801130a:	bd80      	pop	{r7, pc}

0801130c <lcd_puts>:

void lcd_puts(const char *s)
{
 801130c:	b580      	push	{r7, lr}
 801130e:	b082      	sub	sp, #8
 8011310:	af00      	add	r7, sp, #0
 8011312:	6078      	str	r0, [r7, #4]
    while (*s != '\0') {
 8011314:	e006      	b.n	8011324 <lcd_puts+0x18>
        lcd_data((uint8_t)*s++);
 8011316:	687b      	ldr	r3, [r7, #4]
 8011318:	1c5a      	adds	r2, r3, #1
 801131a:	607a      	str	r2, [r7, #4]
 801131c:	781b      	ldrb	r3, [r3, #0]
 801131e:	4618      	mov	r0, r3
 8011320:	f7ff ff8a 	bl	8011238 <lcd_data>
    while (*s != '\0') {
 8011324:	687b      	ldr	r3, [r7, #4]
 8011326:	781b      	ldrb	r3, [r3, #0]
 8011328:	2b00      	cmp	r3, #0
 801132a:	d1f4      	bne.n	8011316 <lcd_puts+0xa>
    }
}
 801132c:	bf00      	nop
 801132e:	bf00      	nop
 8011330:	3708      	adds	r7, #8
 8011332:	46bd      	mov	sp, r7
 8011334:	bd80      	pop	{r7, pc}
	...

08011338 <spi4_init>:
static int spi4_wait_rxne(void);
static int spi4_wait_txe(void);
static int spi4_wait_not_busy(void);
static uint8_t spi4_xfer8(uint8_t tx, int *err);

void spi4_init(void){
 8011338:	b580      	push	{r7, lr}
 801133a:	af00      	add	r7, sp, #0
	*APB2ENR |= (1U<<13U);
 801133c:	4b36      	ldr	r3, [pc, #216]	@ (8011418 <spi4_init+0xe0>)
 801133e:	681b      	ldr	r3, [r3, #0]
 8011340:	4a35      	ldr	r2, [pc, #212]	@ (8011418 <spi4_init+0xe0>)
 8011342:	f443 5300 	orr.w	r3, r3, #8192	@ 0x2000
 8011346:	6013      	str	r3, [r2, #0]
	GPIO_Enable(GPIO_PORT_E);
 8011348:	2004      	movs	r0, #4
 801134a:	f7ff fad9 	bl	8010900 <GPIO_Enable>
	GPIO_AF(GPIO_PORT_E,12,5); // SCK
 801134e:	2205      	movs	r2, #5
 8011350:	210c      	movs	r1, #12
 8011352:	2004      	movs	r0, #4
 8011354:	f7ff fb36 	bl	80109c4 <GPIO_AF>
	GPIO_AF(GPIO_PORT_E,13,5); // MISO
 8011358:	2205      	movs	r2, #5
 801135a:	210d      	movs	r1, #13
 801135c:	2004      	movs	r0, #4
 801135e:	f7ff fb31 	bl	80109c4 <GPIO_AF>
	GPIO_AF(GPIO_PORT_E,14,5); // MOSI
 8011362:	2205      	movs	r2, #5
 8011364:	210e      	movs	r1, #14
 8011366:	2004      	movs	r0, #4
 8011368:	f7ff fb2c 	bl	80109c4 <GPIO_AF>

	 GPIO_Write(GPIO_PORT_E, 11, 1); // CS idle high, PE11 output
 801136c:	2201      	movs	r2, #1
 801136e:	210b      	movs	r1, #11
 8011370:	2004      	movs	r0, #4
 8011372:	f7ff fae1 	bl	8010938 <GPIO_Write>

	*SPI4_CR1&=~(7U<<3U); // BR Clear
 8011376:	4b29      	ldr	r3, [pc, #164]	@ (801141c <spi4_init+0xe4>)
 8011378:	681b      	ldr	r3, [r3, #0]
 801137a:	4a28      	ldr	r2, [pc, #160]	@ (801141c <spi4_init+0xe4>)
 801137c:	f023 0338 	bic.w	r3, r3, #56	@ 0x38
 8011380:	6013      	str	r3, [r2, #0]
	*SPI4_CR1|=(6U<<3U); // apb2/128 =baud
 8011382:	4b26      	ldr	r3, [pc, #152]	@ (801141c <spi4_init+0xe4>)
 8011384:	681b      	ldr	r3, [r3, #0]
 8011386:	4a25      	ldr	r2, [pc, #148]	@ (801141c <spi4_init+0xe4>)
 8011388:	f043 0330 	orr.w	r3, r3, #48	@ 0x30
 801138c:	6013      	str	r3, [r2, #0]

	*SPI4_CR1&=~(3U); // CPHA,CPOL :0
 801138e:	4b23      	ldr	r3, [pc, #140]	@ (801141c <spi4_init+0xe4>)
 8011390:	681b      	ldr	r3, [r3, #0]
 8011392:	4a22      	ldr	r2, [pc, #136]	@ (801141c <spi4_init+0xe4>)
 8011394:	f023 0303 	bic.w	r3, r3, #3
 8011398:	6013      	str	r3, [r2, #0]

	*SPI4_CR1&=~(1U<<11U); // data:8bit
 801139a:	4b20      	ldr	r3, [pc, #128]	@ (801141c <spi4_init+0xe4>)
 801139c:	681b      	ldr	r3, [r3, #0]
 801139e:	4a1f      	ldr	r2, [pc, #124]	@ (801141c <spi4_init+0xe4>)
 80113a0:	f423 6300 	bic.w	r3, r3, #2048	@ 0x800
 80113a4:	6013      	str	r3, [r2, #0]
	*SPI4_CR1&=~(1U<<7U); // MSB transmitted first
 80113a6:	4b1d      	ldr	r3, [pc, #116]	@ (801141c <spi4_init+0xe4>)
 80113a8:	681b      	ldr	r3, [r3, #0]
 80113aa:	4a1c      	ldr	r2, [pc, #112]	@ (801141c <spi4_init+0xe4>)
 80113ac:	f023 0380 	bic.w	r3, r3, #128	@ 0x80
 80113b0:	6013      	str	r3, [r2, #0]

	*SPI4_CR1|=(1U<<9U); // SSM Software slave management enabled
 80113b2:	4b1a      	ldr	r3, [pc, #104]	@ (801141c <spi4_init+0xe4>)
 80113b4:	681b      	ldr	r3, [r3, #0]
 80113b6:	4a19      	ldr	r2, [pc, #100]	@ (801141c <spi4_init+0xe4>)
 80113b8:	f443 7300 	orr.w	r3, r3, #512	@ 0x200
 80113bc:	6013      	str	r3, [r2, #0]
	*SPI4_CR1|=(1U<<8U); // SSI
 80113be:	4b17      	ldr	r3, [pc, #92]	@ (801141c <spi4_init+0xe4>)
 80113c0:	681b      	ldr	r3, [r3, #0]
 80113c2:	4a16      	ldr	r2, [pc, #88]	@ (801141c <spi4_init+0xe4>)
 80113c4:	f443 7380 	orr.w	r3, r3, #256	@ 0x100
 80113c8:	6013      	str	r3, [r2, #0]
	*SPI4_CR1&=~(1U<<10U); // Full duplex
 80113ca:	4b14      	ldr	r3, [pc, #80]	@ (801141c <spi4_init+0xe4>)
 80113cc:	681b      	ldr	r3, [r3, #0]
 80113ce:	4a13      	ldr	r2, [pc, #76]	@ (801141c <spi4_init+0xe4>)
 80113d0:	f423 6380 	bic.w	r3, r3, #1024	@ 0x400
 80113d4:	6013      	str	r3, [r2, #0]

	*SPI4_CR1&=~(1U<<13U); // CRC calculation disabled
 80113d6:	4b11      	ldr	r3, [pc, #68]	@ (801141c <spi4_init+0xe4>)
 80113d8:	681b      	ldr	r3, [r3, #0]
 80113da:	4a10      	ldr	r2, [pc, #64]	@ (801141c <spi4_init+0xe4>)
 80113dc:	f423 5300 	bic.w	r3, r3, #8192	@ 0x2000
 80113e0:	6013      	str	r3, [r2, #0]
	*SPI4_CR1&=~(1U<<15U); // 2-line unidirectional data mode selected
 80113e2:	4b0e      	ldr	r3, [pc, #56]	@ (801141c <spi4_init+0xe4>)
 80113e4:	681b      	ldr	r3, [r3, #0]
 80113e6:	4a0d      	ldr	r2, [pc, #52]	@ (801141c <spi4_init+0xe4>)
 80113e8:	f423 4300 	bic.w	r3, r3, #32768	@ 0x8000
 80113ec:	6013      	str	r3, [r2, #0]

	*SPI4_CR2&=~(1U<<4U); // Motorola mode
 80113ee:	4b0c      	ldr	r3, [pc, #48]	@ (8011420 <spi4_init+0xe8>)
 80113f0:	681b      	ldr	r3, [r3, #0]
 80113f2:	4a0b      	ldr	r2, [pc, #44]	@ (8011420 <spi4_init+0xe8>)
 80113f4:	f023 0310 	bic.w	r3, r3, #16
 80113f8:	6013      	str	r3, [r2, #0]

	*SPI4_CR1|=(1U<<2U); // Master
 80113fa:	4b08      	ldr	r3, [pc, #32]	@ (801141c <spi4_init+0xe4>)
 80113fc:	681b      	ldr	r3, [r3, #0]
 80113fe:	4a07      	ldr	r2, [pc, #28]	@ (801141c <spi4_init+0xe4>)
 8011400:	f043 0304 	orr.w	r3, r3, #4
 8011404:	6013      	str	r3, [r2, #0]
	*SPI4_CR1|=(1U<<6U); // enable
 8011406:	4b05      	ldr	r3, [pc, #20]	@ (801141c <spi4_init+0xe4>)
 8011408:	681b      	ldr	r3, [r3, #0]
 801140a:	4a04      	ldr	r2, [pc, #16]	@ (801141c <spi4_init+0xe4>)
 801140c:	f043 0340 	orr.w	r3, r3, #64	@ 0x40
 8011410:	6013      	str	r3, [r2, #0]
}
 8011412:	bf00      	nop
 8011414:	bd80      	pop	{r7, pc}
 8011416:	bf00      	nop
 8011418:	40023844 	.word	0x40023844
 801141c:	40013400 	.word	0x40013400
 8011420:	40013404 	.word	0x40013404

08011424 <spi4_txrx>:

int spi4_txrx(uint8_t *rx, const uint8_t *tx, uint32_t len){
 8011424:	b580      	push	{r7, lr}
 8011426:	b088      	sub	sp, #32
 8011428:	af00      	add	r7, sp, #0
 801142a:	60f8      	str	r0, [r7, #12]
 801142c:	60b9      	str	r1, [r7, #8]
 801142e:	607a      	str	r2, [r7, #4]
    uint32_t i;
    int err = 0;
 8011430:	2300      	movs	r3, #0
 8011432:	617b      	str	r3, [r7, #20]

    GPIO_Write(GPIO_PORT_E, 11, 0);   // CS low
 8011434:	2200      	movs	r2, #0
 8011436:	210b      	movs	r1, #11
 8011438:	2004      	movs	r0, #4
 801143a:	f7ff fa7d 	bl	8010938 <GPIO_Write>

    for (i = 0; i < len; i++){
 801143e:	2300      	movs	r3, #0
 8011440:	61fb      	str	r3, [r7, #28]
 8011442:	e027      	b.n	8011494 <spi4_txrx+0x70>
        uint8_t dout = (tx != 0) ? tx[i] : 0xFF;
 8011444:	68bb      	ldr	r3, [r7, #8]
 8011446:	2b00      	cmp	r3, #0
 8011448:	d004      	beq.n	8011454 <spi4_txrx+0x30>
 801144a:	68ba      	ldr	r2, [r7, #8]
 801144c:	69fb      	ldr	r3, [r7, #28]
 801144e:	4413      	add	r3, r2
 8011450:	781b      	ldrb	r3, [r3, #0]
 8011452:	e000      	b.n	8011456 <spi4_txrx+0x32>
 8011454:	23ff      	movs	r3, #255	@ 0xff
 8011456:	76fb      	strb	r3, [r7, #27]
        uint8_t din  = spi4_xfer8(dout, &err);
 8011458:	f107 0214 	add.w	r2, r7, #20
 801145c:	7efb      	ldrb	r3, [r7, #27]
 801145e:	4611      	mov	r1, r2
 8011460:	4618      	mov	r0, r3
 8011462:	f000 f89f 	bl	80115a4 <spi4_xfer8>
 8011466:	4603      	mov	r3, r0
 8011468:	76bb      	strb	r3, [r7, #26]

        if (err){
 801146a:	697b      	ldr	r3, [r7, #20]
 801146c:	2b00      	cmp	r3, #0
 801146e:	d006      	beq.n	801147e <spi4_txrx+0x5a>
            GPIO_Write(GPIO_PORT_E, 11, 1);   // CS high on error
 8011470:	2201      	movs	r2, #1
 8011472:	210b      	movs	r1, #11
 8011474:	2004      	movs	r0, #4
 8011476:	f7ff fa5f 	bl	8010938 <GPIO_Write>
            return err;
 801147a:	697b      	ldr	r3, [r7, #20]
 801147c:	e02e      	b.n	80114dc <spi4_txrx+0xb8>
        }

        if (rx != 0){
 801147e:	68fb      	ldr	r3, [r7, #12]
 8011480:	2b00      	cmp	r3, #0
 8011482:	d004      	beq.n	801148e <spi4_txrx+0x6a>
            rx[i] = din;
 8011484:	68fa      	ldr	r2, [r7, #12]
 8011486:	69fb      	ldr	r3, [r7, #28]
 8011488:	4413      	add	r3, r2
 801148a:	7eba      	ldrb	r2, [r7, #26]
 801148c:	701a      	strb	r2, [r3, #0]
    for (i = 0; i < len; i++){
 801148e:	69fb      	ldr	r3, [r7, #28]
 8011490:	3301      	adds	r3, #1
 8011492:	61fb      	str	r3, [r7, #28]
 8011494:	69fa      	ldr	r2, [r7, #28]
 8011496:	687b      	ldr	r3, [r7, #4]
 8011498:	429a      	cmp	r2, r3
 801149a:	d3d3      	bcc.n	8011444 <spi4_txrx+0x20>
        }
    }

    if (spi4_wait_txe()){
 801149c:	f000 f822 	bl	80114e4 <spi4_wait_txe>
 80114a0:	4603      	mov	r3, r0
 80114a2:	2b00      	cmp	r3, #0
 80114a4:	d007      	beq.n	80114b6 <spi4_txrx+0x92>
        GPIO_Write(GPIO_PORT_E, 11, 1);
 80114a6:	2201      	movs	r2, #1
 80114a8:	210b      	movs	r1, #11
 80114aa:	2004      	movs	r0, #4
 80114ac:	f7ff fa44 	bl	8010938 <GPIO_Write>
        return -5;
 80114b0:	f06f 0304 	mvn.w	r3, #4
 80114b4:	e012      	b.n	80114dc <spi4_txrx+0xb8>
    }

    if (spi4_wait_not_busy()){
 80114b6:	f000 f855 	bl	8011564 <spi4_wait_not_busy>
 80114ba:	4603      	mov	r3, r0
 80114bc:	2b00      	cmp	r3, #0
 80114be:	d007      	beq.n	80114d0 <spi4_txrx+0xac>
        GPIO_Write(GPIO_PORT_E, 11, 1);
 80114c0:	2201      	movs	r2, #1
 80114c2:	210b      	movs	r1, #11
 80114c4:	2004      	movs	r0, #4
 80114c6:	f7ff fa37 	bl	8010938 <GPIO_Write>
        return -6;
 80114ca:	f06f 0305 	mvn.w	r3, #5
 80114ce:	e005      	b.n	80114dc <spi4_txrx+0xb8>
    }

    GPIO_Write(GPIO_PORT_E, 11, 1);   // CS high
 80114d0:	2201      	movs	r2, #1
 80114d2:	210b      	movs	r1, #11
 80114d4:	2004      	movs	r0, #4
 80114d6:	f7ff fa2f 	bl	8010938 <GPIO_Write>
    return 0;
 80114da:	2300      	movs	r3, #0
}
 80114dc:	4618      	mov	r0, r3
 80114de:	3720      	adds	r7, #32
 80114e0:	46bd      	mov	sp, r7
 80114e2:	bd80      	pop	{r7, pc}

080114e4 <spi4_wait_txe>:

static int spi4_wait_txe(void){
 80114e4:	b580      	push	{r7, lr}
 80114e6:	b082      	sub	sp, #8
 80114e8:	af00      	add	r7, sp, #0
	uint32_t t;
	t=millis();
 80114ea:	f000 fb03 	bl	8011af4 <millis>
 80114ee:	6078      	str	r0, [r7, #4]
	while(millis() - t < SPI_TIMEOUT){
 80114f0:	e007      	b.n	8011502 <spi4_wait_txe+0x1e>
		if((*SPI4_SR&(1U<<1U))){return 0;}
 80114f2:	4b0b      	ldr	r3, [pc, #44]	@ (8011520 <spi4_wait_txe+0x3c>)
 80114f4:	681b      	ldr	r3, [r3, #0]
 80114f6:	f003 0302 	and.w	r3, r3, #2
 80114fa:	2b00      	cmp	r3, #0
 80114fc:	d001      	beq.n	8011502 <spi4_wait_txe+0x1e>
 80114fe:	2300      	movs	r3, #0
 8011500:	e00a      	b.n	8011518 <spi4_wait_txe+0x34>
	while(millis() - t < SPI_TIMEOUT){
 8011502:	f000 faf7 	bl	8011af4 <millis>
 8011506:	4602      	mov	r2, r0
 8011508:	687b      	ldr	r3, [r7, #4]
 801150a:	1ad3      	subs	r3, r2, r3
 801150c:	f241 3287 	movw	r2, #4999	@ 0x1387
 8011510:	4293      	cmp	r3, r2
 8011512:	d9ee      	bls.n	80114f2 <spi4_wait_txe+0xe>
	}
	return -2 ;
 8011514:	f06f 0301 	mvn.w	r3, #1
}
 8011518:	4618      	mov	r0, r3
 801151a:	3708      	adds	r7, #8
 801151c:	46bd      	mov	sp, r7
 801151e:	bd80      	pop	{r7, pc}
 8011520:	40013408 	.word	0x40013408

08011524 <spi4_wait_rxne>:

static int spi4_wait_rxne(void){
 8011524:	b580      	push	{r7, lr}
 8011526:	b082      	sub	sp, #8
 8011528:	af00      	add	r7, sp, #0
	uint32_t t;
		t=millis();
 801152a:	f000 fae3 	bl	8011af4 <millis>
 801152e:	6078      	str	r0, [r7, #4]
		while(millis() - t < SPI_TIMEOUT){
 8011530:	e007      	b.n	8011542 <spi4_wait_rxne+0x1e>
			if((*SPI4_SR&(1U))){return 0;}
 8011532:	4b0b      	ldr	r3, [pc, #44]	@ (8011560 <spi4_wait_rxne+0x3c>)
 8011534:	681b      	ldr	r3, [r3, #0]
 8011536:	f003 0301 	and.w	r3, r3, #1
 801153a:	2b00      	cmp	r3, #0
 801153c:	d001      	beq.n	8011542 <spi4_wait_rxne+0x1e>
 801153e:	2300      	movs	r3, #0
 8011540:	e00a      	b.n	8011558 <spi4_wait_rxne+0x34>
		while(millis() - t < SPI_TIMEOUT){
 8011542:	f000 fad7 	bl	8011af4 <millis>
 8011546:	4602      	mov	r2, r0
 8011548:	687b      	ldr	r3, [r7, #4]
 801154a:	1ad3      	subs	r3, r2, r3
 801154c:	f241 3287 	movw	r2, #4999	@ 0x1387
 8011550:	4293      	cmp	r3, r2
 8011552:	d9ee      	bls.n	8011532 <spi4_wait_rxne+0xe>
		}
		return -2 ;
 8011554:	f06f 0301 	mvn.w	r3, #1
}
 8011558:	4618      	mov	r0, r3
 801155a:	3708      	adds	r7, #8
 801155c:	46bd      	mov	sp, r7
 801155e:	bd80      	pop	{r7, pc}
 8011560:	40013408 	.word	0x40013408

08011564 <spi4_wait_not_busy>:

static int spi4_wait_not_busy(void){
 8011564:	b580      	push	{r7, lr}
 8011566:	b082      	sub	sp, #8
 8011568:	af00      	add	r7, sp, #0
    uint32_t t = millis();
 801156a:	f000 fac3 	bl	8011af4 <millis>
 801156e:	6078      	str	r0, [r7, #4]
    while ((millis() - t) < SPI_TIMEOUT){
 8011570:	e007      	b.n	8011582 <spi4_wait_not_busy+0x1e>
        if ((*SPI4_SR & (1U << 7U)) == 0U){   // BSY == 0
 8011572:	4b0b      	ldr	r3, [pc, #44]	@ (80115a0 <spi4_wait_not_busy+0x3c>)
 8011574:	681b      	ldr	r3, [r3, #0]
 8011576:	f003 0380 	and.w	r3, r3, #128	@ 0x80
 801157a:	2b00      	cmp	r3, #0
 801157c:	d101      	bne.n	8011582 <spi4_wait_not_busy+0x1e>
            return 0;
 801157e:	2300      	movs	r3, #0
 8011580:	e00a      	b.n	8011598 <spi4_wait_not_busy+0x34>
    while ((millis() - t) < SPI_TIMEOUT){
 8011582:	f000 fab7 	bl	8011af4 <millis>
 8011586:	4602      	mov	r2, r0
 8011588:	687b      	ldr	r3, [r7, #4]
 801158a:	1ad3      	subs	r3, r2, r3
 801158c:	f241 3287 	movw	r2, #4999	@ 0x1387
 8011590:	4293      	cmp	r3, r2
 8011592:	d9ee      	bls.n	8011572 <spi4_wait_not_busy+0xe>
        }
    }
    return -2;
 8011594:	f06f 0301 	mvn.w	r3, #1
}
 8011598:	4618      	mov	r0, r3
 801159a:	3708      	adds	r7, #8
 801159c:	46bd      	mov	sp, r7
 801159e:	bd80      	pop	{r7, pc}
 80115a0:	40013408 	.word	0x40013408

080115a4 <spi4_xfer8>:

static uint8_t spi4_xfer8(uint8_t tx, int *err){
 80115a4:	b580      	push	{r7, lr}
 80115a6:	b082      	sub	sp, #8
 80115a8:	af00      	add	r7, sp, #0
 80115aa:	4603      	mov	r3, r0
 80115ac:	6039      	str	r1, [r7, #0]
 80115ae:	71fb      	strb	r3, [r7, #7]
    if (spi4_wait_txe()){
 80115b0:	f7ff ff98 	bl	80114e4 <spi4_wait_txe>
 80115b4:	4603      	mov	r3, r0
 80115b6:	2b00      	cmp	r3, #0
 80115b8:	d008      	beq.n	80115cc <spi4_xfer8+0x28>
        if (err) *err = -3;
 80115ba:	683b      	ldr	r3, [r7, #0]
 80115bc:	2b00      	cmp	r3, #0
 80115be:	d003      	beq.n	80115c8 <spi4_xfer8+0x24>
 80115c0:	683b      	ldr	r3, [r7, #0]
 80115c2:	f06f 0202 	mvn.w	r2, #2
 80115c6:	601a      	str	r2, [r3, #0]
        return 0xFF;
 80115c8:	23ff      	movs	r3, #255	@ 0xff
 80115ca:	e013      	b.n	80115f4 <spi4_xfer8+0x50>
    }

    *((volatile uint8_t*)SPI4_DR) = tx;
 80115cc:	4a0b      	ldr	r2, [pc, #44]	@ (80115fc <spi4_xfer8+0x58>)
 80115ce:	79fb      	ldrb	r3, [r7, #7]
 80115d0:	7013      	strb	r3, [r2, #0]

    if (spi4_wait_rxne()){
 80115d2:	f7ff ffa7 	bl	8011524 <spi4_wait_rxne>
 80115d6:	4603      	mov	r3, r0
 80115d8:	2b00      	cmp	r3, #0
 80115da:	d008      	beq.n	80115ee <spi4_xfer8+0x4a>
        if (err) *err = -4;
 80115dc:	683b      	ldr	r3, [r7, #0]
 80115de:	2b00      	cmp	r3, #0
 80115e0:	d003      	beq.n	80115ea <spi4_xfer8+0x46>
 80115e2:	683b      	ldr	r3, [r7, #0]
 80115e4:	f06f 0203 	mvn.w	r2, #3
 80115e8:	601a      	str	r2, [r3, #0]
        return 0xFF;
 80115ea:	23ff      	movs	r3, #255	@ 0xff
 80115ec:	e002      	b.n	80115f4 <spi4_xfer8+0x50>
    }

    return *((volatile uint8_t*)SPI4_DR);
 80115ee:	4b03      	ldr	r3, [pc, #12]	@ (80115fc <spi4_xfer8+0x58>)
 80115f0:	781b      	ldrb	r3, [r3, #0]
 80115f2:	b2db      	uxtb	r3, r3
}
 80115f4:	4618      	mov	r0, r3
 80115f6:	3708      	adds	r7, #8
 80115f8:	46bd      	mov	sp, r7
 80115fa:	bd80      	pop	{r7, pc}
 80115fc:	4001340c 	.word	0x4001340c

08011600 <__NVIC_SystemReset>:
/**
  \brief   System Reset
  \details Initiates a system reset request to reset the MCU.
 */
__NO_RETURN __STATIC_INLINE void __NVIC_SystemReset(void)
{
 8011600:	b480      	push	{r7}
 8011602:	af00      	add	r7, sp, #0
  __ASM volatile ("dsb 0xF":::"memory");
 8011604:	f3bf 8f4f 	dsb	sy
}
 8011608:	bf00      	nop
  __DSB();                                                          /* Ensure all outstanding memory accesses included
                                                                       buffered write are completed before reset */
  SCB->AIRCR  = (uint32_t)((0x5FAUL << SCB_AIRCR_VECTKEY_Pos)    |
                           (SCB->AIRCR & SCB_AIRCR_PRIGROUP_Msk) |
 801160a:	4b06      	ldr	r3, [pc, #24]	@ (8011624 <__NVIC_SystemReset+0x24>)
 801160c:	68db      	ldr	r3, [r3, #12]
 801160e:	f403 62e0 	and.w	r2, r3, #1792	@ 0x700
  SCB->AIRCR  = (uint32_t)((0x5FAUL << SCB_AIRCR_VECTKEY_Pos)    |
 8011612:	4904      	ldr	r1, [pc, #16]	@ (8011624 <__NVIC_SystemReset+0x24>)
 8011614:	4b04      	ldr	r3, [pc, #16]	@ (8011628 <__NVIC_SystemReset+0x28>)
 8011616:	4313      	orrs	r3, r2
 8011618:	60cb      	str	r3, [r1, #12]
  __ASM volatile ("dsb 0xF":::"memory");
 801161a:	f3bf 8f4f 	dsb	sy
}
 801161e:	bf00      	nop
                            SCB_AIRCR_SYSRESETREQ_Msk    );         /* Keep priority group unchanged */
  __DSB();                                                          /* Ensure completion of memory access */

  for(;;)                                                           /* wait until reset */
  {
    __NOP();
 8011620:	bf00      	nop
 8011622:	e7fd      	b.n	8011620 <__NVIC_SystemReset+0x20>
 8011624:	e000ed00 	.word	0xe000ed00
 8011628:	05fa0004 	.word	0x05fa0004

0801162c <NMI_Handler>:
/******************************************************************************/
/**
  * @brief This function handles Non maskable interrupt.
  */
void NMI_Handler(void)
{
 801162c:	b480      	push	{r7}
 801162e:	af00      	add	r7, sp, #0
  /* USER CODE BEGIN NonMaskableInt_IRQn 0 */

  /* USER CODE END NonMaskableInt_IRQn 0 */
  /* USER CODE BEGIN NonMaskableInt_IRQn 1 */
   while (1)
 8011630:	bf00      	nop
 8011632:	e7fd      	b.n	8011630 <NMI_Handler+0x4>

08011634 <HardFault_Handler>:

/**
  * @brief This function handles Hard fault interrupt.
  */
void HardFault_Handler(void)
{
 8011634:	b580      	push	{r7, lr}
 8011636:	b084      	sub	sp, #16
 8011638:	af00      	add	r7, sp, #0
  \details Disables IRQ interrupts by setting special-purpose register PRIMASK.
           Can only be executed in Privileged modes.
 */
__STATIC_FORCEINLINE void __disable_irq(void)
{
  __ASM volatile ("cpsid i" : : : "memory");
 801163a:	b672      	cpsid	i
}
 801163c:	bf00      	nop
  /* USER CODE BEGIN HardFault_IRQn 0 */

    __disable_irq();

    g_crashlog.magic   = CRASHLOG_MAGIC;
 801163e:	4b21      	ldr	r3, [pc, #132]	@ (80116c4 <HardFault_Handler+0x90>)
 8011640:	4a21      	ldr	r2, [pc, #132]	@ (80116c8 <HardFault_Handler+0x94>)
 8011642:	601a      	str	r2, [r3, #0]
    g_crashlog.ver     = CRASHLOG_VER;
 8011644:	4b1f      	ldr	r3, [pc, #124]	@ (80116c4 <HardFault_Handler+0x90>)
 8011646:	2201      	movs	r2, #1
 8011648:	605a      	str	r2, [r3, #4]
    g_crashlog.seq     = g_crashlog.seq + 1;
 801164a:	4b1e      	ldr	r3, [pc, #120]	@ (80116c4 <HardFault_Handler+0x90>)
 801164c:	689b      	ldr	r3, [r3, #8]
 801164e:	3301      	adds	r3, #1
 8011650:	4a1c      	ldr	r2, [pc, #112]	@ (80116c4 <HardFault_Handler+0x90>)
 8011652:	6093      	str	r3, [r2, #8]

    g_crashlog.vtor    = *SCB_VTOR;
 8011654:	4b1d      	ldr	r3, [pc, #116]	@ (80116cc <HardFault_Handler+0x98>)
 8011656:	681b      	ldr	r3, [r3, #0]
 8011658:	4a1a      	ldr	r2, [pc, #104]	@ (80116c4 <HardFault_Handler+0x90>)
 801165a:	60d3      	str	r3, [r2, #12]
    g_crashlog.hfsr    = *SCB_HFSR;
 801165c:	4b1c      	ldr	r3, [pc, #112]	@ (80116d0 <HardFault_Handler+0x9c>)
 801165e:	681b      	ldr	r3, [r3, #0]
 8011660:	4a18      	ldr	r2, [pc, #96]	@ (80116c4 <HardFault_Handler+0x90>)
 8011662:	6113      	str	r3, [r2, #16]
    g_crashlog.cfsr    = *SCB_CFSR;
 8011664:	4b1b      	ldr	r3, [pc, #108]	@ (80116d4 <HardFault_Handler+0xa0>)
 8011666:	681b      	ldr	r3, [r3, #0]
 8011668:	4a16      	ldr	r2, [pc, #88]	@ (80116c4 <HardFault_Handler+0x90>)
 801166a:	6153      	str	r3, [r2, #20]
    g_crashlog.shcsr   = *SCB_SHCSR;
 801166c:	4b1a      	ldr	r3, [pc, #104]	@ (80116d8 <HardFault_Handler+0xa4>)
 801166e:	681b      	ldr	r3, [r3, #0]
 8011670:	4a14      	ldr	r2, [pc, #80]	@ (80116c4 <HardFault_Handler+0x90>)
 8011672:	6193      	str	r3, [r2, #24]


    g_crashlog.mmfar   = *SCB_MMFAR;
 8011674:	4b19      	ldr	r3, [pc, #100]	@ (80116dc <HardFault_Handler+0xa8>)
 8011676:	681b      	ldr	r3, [r3, #0]
 8011678:	4a12      	ldr	r2, [pc, #72]	@ (80116c4 <HardFault_Handler+0x90>)
 801167a:	61d3      	str	r3, [r2, #28]
    g_crashlog.bfar    = *SCB_BFAR;
 801167c:	4b18      	ldr	r3, [pc, #96]	@ (80116e0 <HardFault_Handler+0xac>)
 801167e:	681b      	ldr	r3, [r3, #0]
 8011680:	4a10      	ldr	r2, [pc, #64]	@ (80116c4 <HardFault_Handler+0x90>)
 8011682:	6213      	str	r3, [r2, #32]
    g_crashlog.afsr    = *SCB_AFSR;
 8011684:	4b17      	ldr	r3, [pc, #92]	@ (80116e4 <HardFault_Handler+0xb0>)
 8011686:	681b      	ldr	r3, [r3, #0]
 8011688:	4a0e      	ldr	r2, [pc, #56]	@ (80116c4 <HardFault_Handler+0x90>)
 801168a:	6253      	str	r3, [r2, #36]	@ 0x24
    g_crashlog.dfsr = *SCB_DFSR;
 801168c:	4b16      	ldr	r3, [pc, #88]	@ (80116e8 <HardFault_Handler+0xb4>)
 801168e:	681b      	ldr	r3, [r3, #0]
 8011690:	4a0c      	ldr	r2, [pc, #48]	@ (80116c4 <HardFault_Handler+0x90>)
 8011692:	6353      	str	r3, [r2, #52]	@ 0x34
 */
__STATIC_FORCEINLINE uint32_t __get_MSP(void)
{
  uint32_t result;

  __ASM volatile ("MRS %0, msp" : "=r" (result) );
 8011694:	f3ef 8308 	mrs	r3, MSP
 8011698:	607b      	str	r3, [r7, #4]
  return(result);
 801169a:	687b      	ldr	r3, [r7, #4]

    g_crashlog.msp     = __get_MSP();
 801169c:	4a09      	ldr	r2, [pc, #36]	@ (80116c4 <HardFault_Handler+0x90>)
 801169e:	6293      	str	r3, [r2, #40]	@ 0x28
  __ASM volatile ("MRS %0, psp"  : "=r" (result) );
 80116a0:	f3ef 8309 	mrs	r3, PSP
 80116a4:	60bb      	str	r3, [r7, #8]
  return(result);
 80116a6:	68bb      	ldr	r3, [r7, #8]
    g_crashlog.psp     = __get_PSP();
 80116a8:	4a06      	ldr	r2, [pc, #24]	@ (80116c4 <HardFault_Handler+0x90>)
 80116aa:	62d3      	str	r3, [r2, #44]	@ 0x2c
  __ASM volatile ("MRS %0, control" : "=r" (result) );
 80116ac:	f3ef 8314 	mrs	r3, CONTROL
 80116b0:	60fb      	str	r3, [r7, #12]
  return(result);
 80116b2:	68fb      	ldr	r3, [r7, #12]
    g_crashlog.control = __get_CONTROL();
 80116b4:	4a03      	ldr	r2, [pc, #12]	@ (80116c4 <HardFault_Handler+0x90>)
 80116b6:	6313      	str	r3, [r2, #48]	@ 0x30
  __ASM volatile ("dsb 0xF":::"memory");
 80116b8:	f3bf 8f4f 	dsb	sy
}
 80116bc:	bf00      	nop


    __DSB();

    NVIC_SystemReset();
 80116be:	f7ff ff9f 	bl	8011600 <__NVIC_SystemReset>
 80116c2:	bf00      	nop
 80116c4:	2002ff00 	.word	0x2002ff00
 80116c8:	434c4f47 	.word	0x434c4f47
 80116cc:	e000ed08 	.word	0xe000ed08
 80116d0:	e000ed2c 	.word	0xe000ed2c
 80116d4:	e000ed28 	.word	0xe000ed28
 80116d8:	e000ed24 	.word	0xe000ed24
 80116dc:	e000ed34 	.word	0xe000ed34
 80116e0:	e000ed38 	.word	0xe000ed38
 80116e4:	e000ed3c 	.word	0xe000ed3c
 80116e8:	e000ed30 	.word	0xe000ed30

080116ec <MemManage_Handler>:

/**
  * @brief This function handles Memory management fault.
  */
void MemManage_Handler(void)
{
 80116ec:	b480      	push	{r7}
 80116ee:	af00      	add	r7, sp, #0
  /* USER CODE BEGIN MemoryManagement_IRQn 0 */

  /* USER CODE END MemoryManagement_IRQn 0 */
  while (1)
 80116f0:	bf00      	nop
 80116f2:	e7fd      	b.n	80116f0 <MemManage_Handler+0x4>

080116f4 <BusFault_Handler>:

/**
  * @brief This function handles Pre-fetch fault, memory access fault.
  */
void BusFault_Handler(void)
{
 80116f4:	b480      	push	{r7}
 80116f6:	af00      	add	r7, sp, #0
  /* USER CODE BEGIN BusFault_IRQn 0 */

  /* USER CODE END BusFault_IRQn 0 */
  while (1)
 80116f8:	bf00      	nop
 80116fa:	e7fd      	b.n	80116f8 <BusFault_Handler+0x4>

080116fc <UsageFault_Handler>:

/**
  * @brief This function handles Undefined instruction or illegal state.
  */
void UsageFault_Handler(void)
{
 80116fc:	b480      	push	{r7}
 80116fe:	af00      	add	r7, sp, #0
  /* USER CODE BEGIN UsageFault_IRQn 0 */

  /* USER CODE END UsageFault_IRQn 0 */
  while (1)
 8011700:	bf00      	nop
 8011702:	e7fd      	b.n	8011700 <UsageFault_Handler+0x4>

08011704 <SVC_Handler>:

/**
  * @brief This function handles System service call via SWI instruction.
  */
void SVC_Handler(void)
{
 8011704:	b480      	push	{r7}
 8011706:	af00      	add	r7, sp, #0

  /* USER CODE END SVCall_IRQn 0 */
  /* USER CODE BEGIN SVCall_IRQn 1 */

  /* USER CODE END SVCall_IRQn 1 */
}
 8011708:	bf00      	nop
 801170a:	46bd      	mov	sp, r7
 801170c:	f85d 7b04 	ldr.w	r7, [sp], #4
 8011710:	4770      	bx	lr

08011712 <DebugMon_Handler>:

/**
  * @brief This function handles Debug monitor.
  */
void DebugMon_Handler(void)
{
 8011712:	b480      	push	{r7}
 8011714:	af00      	add	r7, sp, #0

  /* USER CODE END DebugMonitor_IRQn 0 */
  /* USER CODE BEGIN DebugMonitor_IRQn 1 */

  /* USER CODE END DebugMonitor_IRQn 1 */
}
 8011716:	bf00      	nop
 8011718:	46bd      	mov	sp, r7
 801171a:	f85d 7b04 	ldr.w	r7, [sp], #4
 801171e:	4770      	bx	lr

08011720 <PendSV_Handler>:

/**
  * @brief This function handles Pendable request for system service.
  */
void PendSV_Handler(void)
{
 8011720:	b480      	push	{r7}
 8011722:	af00      	add	r7, sp, #0

  /* USER CODE END PendSV_IRQn 0 */
  /* USER CODE BEGIN PendSV_IRQn 1 */

  /* USER CODE END PendSV_IRQn 1 */
}
 8011724:	bf00      	nop
 8011726:	46bd      	mov	sp, r7
 8011728:	f85d 7b04 	ldr.w	r7, [sp], #4
 801172c:	4770      	bx	lr

0801172e <SysTick_Handler>:

/**
  * @brief This function handles System tick timer.
  */
void SysTick_Handler(void)
{
 801172e:	b580      	push	{r7, lr}
 8011730:	af00      	add	r7, sp, #0
  /* USER CODE BEGIN SysTick_IRQn 0 */
	timebase_isr_tick();
 8011732:	f000 f815 	bl	8011760 <timebase_isr_tick>
  /* USER CODE END SysTick_IRQn 0 */
  //HAL_IncTick();
  /* USER CODE BEGIN SysTick_IRQn 1 */

  /* USER CODE END SysTick_IRQn 1 */
}
 8011736:	bf00      	nop
 8011738:	bd80      	pop	{r7, pc}
	...

0801173c <SystemInit>:
  *         configuration.
  * @param  None
  * @retval None
  */
void SystemInit(void)
{
 801173c:	b480      	push	{r7}
 801173e:	af00      	add	r7, sp, #0
  /* FPU settings ------------------------------------------------------------*/
  #if (__FPU_PRESENT == 1) && (__FPU_USED == 1)
    SCB->CPACR |= ((3UL << 10*2)|(3UL << 11*2));  /* set CP10 and CP11 Full Access */
 8011740:	4b06      	ldr	r3, [pc, #24]	@ (801175c <SystemInit+0x20>)
 8011742:	f8d3 3088 	ldr.w	r3, [r3, #136]	@ 0x88
 8011746:	4a05      	ldr	r2, [pc, #20]	@ (801175c <SystemInit+0x20>)
 8011748:	f443 0370 	orr.w	r3, r3, #15728640	@ 0xf00000
 801174c:	f8c2 3088 	str.w	r3, [r2, #136]	@ 0x88

  /* Configure the Vector Table location -------------------------------------*/
#if defined(USER_VECT_TAB_ADDRESS)
  SCB->VTOR = VECT_TAB_BASE_ADDRESS | VECT_TAB_OFFSET; /* Vector Table Relocation in Internal SRAM */
#endif /* USER_VECT_TAB_ADDRESS */
}
 8011750:	bf00      	nop
 8011752:	46bd      	mov	sp, r7
 8011754:	f85d 7b04 	ldr.w	r7, [sp], #4
 8011758:	4770      	bx	lr
 801175a:	bf00      	nop
 801175c:	e000ed00 	.word	0xe000ed00

08011760 <timebase_isr_tick>:
#include <gpio.h>
#include <clock.h>

static volatile uint32_t sys_ms=0;

void timebase_isr_tick(void){
 8011760:	b480      	push	{r7}
 8011762:	af00      	add	r7, sp, #0
	 sys_ms++;
 8011764:	4b04      	ldr	r3, [pc, #16]	@ (8011778 <timebase_isr_tick+0x18>)
 8011766:	681b      	ldr	r3, [r3, #0]
 8011768:	3301      	adds	r3, #1
 801176a:	4a03      	ldr	r2, [pc, #12]	@ (8011778 <timebase_isr_tick+0x18>)
 801176c:	6013      	str	r3, [r2, #0]
}
 801176e:	bf00      	nop
 8011770:	46bd      	mov	sp, r7
 8011772:	f85d 7b04 	ldr.w	r7, [sp], #4
 8011776:	4770      	bx	lr
 8011778:	20000038 	.word	0x20000038

0801177c <sys_init>:

void sys_init(uint32_t tick_hz)
{
 801177c:	b580      	push	{r7, lr}
 801177e:	b084      	sub	sp, #16
 8011780:	af00      	add	r7, sp, #0
 8011782:	6078      	str	r0, [r7, #4]
    uint32_t hclk = get_hclk();
 8011784:	f7fe fdf0 	bl	8010368 <get_hclk>
 8011788:	60f8      	str	r0, [r7, #12]
    uint32_t reload = (hclk / tick_hz) - 1U;
 801178a:	68fa      	ldr	r2, [r7, #12]
 801178c:	687b      	ldr	r3, [r7, #4]
 801178e:	fbb2 f3f3 	udiv	r3, r2, r3
 8011792:	3b01      	subs	r3, #1
 8011794:	60bb      	str	r3, [r7, #8]

    *STK_LOAD = reload;
 8011796:	4a06      	ldr	r2, [pc, #24]	@ (80117b0 <sys_init+0x34>)
 8011798:	68bb      	ldr	r3, [r7, #8]
 801179a:	6013      	str	r3, [r2, #0]
    *STK_VAL  = 0U;
 801179c:	4b05      	ldr	r3, [pc, #20]	@ (80117b4 <sys_init+0x38>)
 801179e:	2200      	movs	r2, #0
 80117a0:	601a      	str	r2, [r3, #0]
    *STK_CTRL = (1U<<2) | (1U<<1) | (1U<<0);
 80117a2:	4b05      	ldr	r3, [pc, #20]	@ (80117b8 <sys_init+0x3c>)
 80117a4:	2207      	movs	r2, #7
 80117a6:	601a      	str	r2, [r3, #0]
}
 80117a8:	bf00      	nop
 80117aa:	3710      	adds	r7, #16
 80117ac:	46bd      	mov	sp, r7
 80117ae:	bd80      	pop	{r7, pc}
 80117b0:	e000e014 	.word	0xe000e014
 80117b4:	e000e018 	.word	0xe000e018
 80117b8:	e000e010 	.word	0xe000e010

080117bc <tim2_pwm_output>:

//PB11 AF:TIM2 CH4
int tim2_pwm_output(void){
 80117bc:	b580      	push	{r7, lr}
 80117be:	b082      	sub	sp, #8
 80117c0:	af00      	add	r7, sp, #0
	uint32_t tim2_clk=0;
 80117c2:	2300      	movs	r3, #0
 80117c4:	607b      	str	r3, [r7, #4]
	 tim2_clk=get_tim_clk();
 80117c6:	f000 f93f 	bl	8011a48 <get_tim_clk>
 80117ca:	6078      	str	r0, [r7, #4]

	*APB1ENR |= (1U << 0U);
 80117cc:	4b24      	ldr	r3, [pc, #144]	@ (8011860 <tim2_pwm_output+0xa4>)
 80117ce:	681b      	ldr	r3, [r3, #0]
 80117d0:	4a23      	ldr	r2, [pc, #140]	@ (8011860 <tim2_pwm_output+0xa4>)
 80117d2:	f043 0301 	orr.w	r3, r3, #1
 80117d6:	6013      	str	r3, [r2, #0]

	GPIO_AF(GPIO_PORT_B,11,1); //PB11
 80117d8:	2201      	movs	r2, #1
 80117da:	210b      	movs	r1, #11
 80117dc:	2001      	movs	r0, #1
 80117de:	f7ff f8f1 	bl	80109c4 <GPIO_AF>
	*TIM2_CR1&=~(1U);
 80117e2:	f04f 4380 	mov.w	r3, #1073741824	@ 0x40000000
 80117e6:	681b      	ldr	r3, [r3, #0]
 80117e8:	f04f 4280 	mov.w	r2, #1073741824	@ 0x40000000
 80117ec:	f023 0301 	bic.w	r3, r3, #1
 80117f0:	6013      	str	r3, [r2, #0]

	*TIM2_CR1|=(1U<<7U); //auto-reload buffered
 80117f2:	f04f 4380 	mov.w	r3, #1073741824	@ 0x40000000
 80117f6:	681b      	ldr	r3, [r3, #0]
 80117f8:	f04f 4280 	mov.w	r2, #1073741824	@ 0x40000000
 80117fc:	f043 0380 	orr.w	r3, r3, #128	@ 0x80
 8011800:	6013      	str	r3, [r2, #0]

	*TIM2_PSC=(tim2_clk/1000000)- 1U; // 1MHz
 8011802:	687b      	ldr	r3, [r7, #4]
 8011804:	4a17      	ldr	r2, [pc, #92]	@ (8011864 <tim2_pwm_output+0xa8>)
 8011806:	fba2 2303 	umull	r2, r3, r2, r3
 801180a:	0c9b      	lsrs	r3, r3, #18
 801180c:	4a16      	ldr	r2, [pc, #88]	@ (8011868 <tim2_pwm_output+0xac>)
 801180e:	3b01      	subs	r3, #1
 8011810:	6013      	str	r3, [r2, #0]

	*TIM2_ARR=0x3e8U- 1U;  // 1kHz
 8011812:	4b16      	ldr	r3, [pc, #88]	@ (801186c <tim2_pwm_output+0xb0>)
 8011814:	f240 32e7 	movw	r2, #999	@ 0x3e7
 8011818:	601a      	str	r2, [r3, #0]

	*TIM2_CCMR2|=(6U<<12U); // 0C4M 110 ->Pwm 1
 801181a:	4b15      	ldr	r3, [pc, #84]	@ (8011870 <tim2_pwm_output+0xb4>)
 801181c:	681b      	ldr	r3, [r3, #0]
 801181e:	4a14      	ldr	r2, [pc, #80]	@ (8011870 <tim2_pwm_output+0xb4>)
 8011820:	f443 43c0 	orr.w	r3, r3, #24576	@ 0x6000
 8011824:	6013      	str	r3, [r2, #0]

	*TIM2_CCER|=(1U<<12U);
 8011826:	4b13      	ldr	r3, [pc, #76]	@ (8011874 <tim2_pwm_output+0xb8>)
 8011828:	681b      	ldr	r3, [r3, #0]
 801182a:	4a12      	ldr	r2, [pc, #72]	@ (8011874 <tim2_pwm_output+0xb8>)
 801182c:	f443 5380 	orr.w	r3, r3, #4096	@ 0x1000
 8011830:	6013      	str	r3, [r2, #0]

	*TIM2_CCR4=0x1f4;
 8011832:	4b11      	ldr	r3, [pc, #68]	@ (8011878 <tim2_pwm_output+0xbc>)
 8011834:	f44f 72fa 	mov.w	r2, #500	@ 0x1f4
 8011838:	601a      	str	r2, [r3, #0]

	*TIM2_EGR |= 1U;
 801183a:	4b10      	ldr	r3, [pc, #64]	@ (801187c <tim2_pwm_output+0xc0>)
 801183c:	681b      	ldr	r3, [r3, #0]
 801183e:	4a0f      	ldr	r2, [pc, #60]	@ (801187c <tim2_pwm_output+0xc0>)
 8011840:	f043 0301 	orr.w	r3, r3, #1
 8011844:	6013      	str	r3, [r2, #0]

	*TIM2_CR1|=1U; //enable
 8011846:	f04f 4380 	mov.w	r3, #1073741824	@ 0x40000000
 801184a:	681b      	ldr	r3, [r3, #0]
 801184c:	f04f 4280 	mov.w	r2, #1073741824	@ 0x40000000
 8011850:	f043 0301 	orr.w	r3, r3, #1
 8011854:	6013      	str	r3, [r2, #0]

	return 0;
 8011856:	2300      	movs	r3, #0
}
 8011858:	4618      	mov	r0, r3
 801185a:	3708      	adds	r7, #8
 801185c:	46bd      	mov	sp, r7
 801185e:	bd80      	pop	{r7, pc}
 8011860:	40023840 	.word	0x40023840
 8011864:	431bde83 	.word	0x431bde83
 8011868:	40000028 	.word	0x40000028
 801186c:	4000002c 	.word	0x4000002c
 8011870:	4000001c 	.word	0x4000001c
 8011874:	40000020 	.word	0x40000020
 8011878:	40000040 	.word	0x40000040
 801187c:	40000014 	.word	0x40000014

08011880 <tim5_pwm_capture>:

//PA0 AF:TIM5_CH1
int tim5_pwm_capture(void){
 8011880:	b580      	push	{r7, lr}
 8011882:	b082      	sub	sp, #8
 8011884:	af00      	add	r7, sp, #0
	uint32_t tim_clk=0;
 8011886:	2300      	movs	r3, #0
 8011888:	607b      	str	r3, [r7, #4]
	tim_clk=get_tim_clk();
 801188a:	f000 f8dd 	bl	8011a48 <get_tim_clk>
 801188e:	6078      	str	r0, [r7, #4]

	*APB1ENR |= (1U << 3U);
 8011890:	4b2f      	ldr	r3, [pc, #188]	@ (8011950 <tim5_pwm_capture+0xd0>)
 8011892:	681b      	ldr	r3, [r3, #0]
 8011894:	4a2e      	ldr	r2, [pc, #184]	@ (8011950 <tim5_pwm_capture+0xd0>)
 8011896:	f043 0308 	orr.w	r3, r3, #8
 801189a:	6013      	str	r3, [r2, #0]

	GPIO_AF(GPIO_PORT_A,0,2);
 801189c:	2202      	movs	r2, #2
 801189e:	2100      	movs	r1, #0
 80118a0:	2000      	movs	r0, #0
 80118a2:	f7ff f88f 	bl	80109c4 <GPIO_AF>

	*TIM5_CR1&=~(1U);
 80118a6:	4b2b      	ldr	r3, [pc, #172]	@ (8011954 <tim5_pwm_capture+0xd4>)
 80118a8:	681b      	ldr	r3, [r3, #0]
 80118aa:	4a2a      	ldr	r2, [pc, #168]	@ (8011954 <tim5_pwm_capture+0xd4>)
 80118ac:	f023 0301 	bic.w	r3, r3, #1
 80118b0:	6013      	str	r3, [r2, #0]

	*TIM5_PSC=(tim_clk/1000000)- 1U; // 1MHz
 80118b2:	687b      	ldr	r3, [r7, #4]
 80118b4:	4a28      	ldr	r2, [pc, #160]	@ (8011958 <tim5_pwm_capture+0xd8>)
 80118b6:	fba2 2303 	umull	r2, r3, r2, r3
 80118ba:	0c9b      	lsrs	r3, r3, #18
 80118bc:	4a27      	ldr	r2, [pc, #156]	@ (801195c <tim5_pwm_capture+0xdc>)
 80118be:	3b01      	subs	r3, #1
 80118c0:	6013      	str	r3, [r2, #0]

	*TIM5_ARR=0xffffffffU;  // 2147.483648[s]
 80118c2:	4b27      	ldr	r3, [pc, #156]	@ (8011960 <tim5_pwm_capture+0xe0>)
 80118c4:	f04f 32ff 	mov.w	r2, #4294967295
 80118c8:	601a      	str	r2, [r3, #0]

	*TIM5_CCER &= ~((1U<<0) | (1U<<4));   // CC1E=0, CC2E=0
 80118ca:	4b26      	ldr	r3, [pc, #152]	@ (8011964 <tim5_pwm_capture+0xe4>)
 80118cc:	681b      	ldr	r3, [r3, #0]
 80118ce:	4a25      	ldr	r2, [pc, #148]	@ (8011964 <tim5_pwm_capture+0xe4>)
 80118d0:	f023 0311 	bic.w	r3, r3, #17
 80118d4:	6013      	str	r3, [r2, #0]

	// CCMR1:
	// CC1S=01 (IC1 <- TI1)
	// CC2S=10 (IC2 <- TI1)
	// IC1F/IC2F=0, IC1PSC/IC2PSC=0
	*TIM5_CCMR1 &= ~((3U << 0) | (3U << 2) | (0xFU << 4) |	// CC1S, IC1PSC, IC1F
 80118d6:	4b24      	ldr	r3, [pc, #144]	@ (8011968 <tim5_pwm_capture+0xe8>)
 80118d8:	681b      	ldr	r3, [r3, #0]
 80118da:	4a23      	ldr	r2, [pc, #140]	@ (8011968 <tim5_pwm_capture+0xe8>)
 80118dc:	0c1b      	lsrs	r3, r3, #16
 80118de:	041b      	lsls	r3, r3, #16
 80118e0:	6013      	str	r3, [r2, #0]
			(3U << 8) | (3U << 10) | (0xFU << 12));	// CC2S, IC2PSC, IC2F

	*TIM5_CCMR1 |= ((1U << 0) | (2U << 8));	// CC1S=01  CC2S=10
 80118e2:	4b21      	ldr	r3, [pc, #132]	@ (8011968 <tim5_pwm_capture+0xe8>)
 80118e4:	681b      	ldr	r3, [r3, #0]
 80118e6:	4a20      	ldr	r2, [pc, #128]	@ (8011968 <tim5_pwm_capture+0xe8>)
 80118e8:	f443 7300 	orr.w	r3, r3, #512	@ 0x200
 80118ec:	f043 0301 	orr.w	r3, r3, #1
 80118f0:	6013      	str	r3, [r2, #0]

	// CCER: CH1=rising, CH2=falling
	*TIM5_CCER &= ~((1U << 1) | (1U << 3) | (1U << 5) | (1U << 7)); // CC1P/CC1NP/CC2P/CC2NP
 80118f2:	4b1c      	ldr	r3, [pc, #112]	@ (8011964 <tim5_pwm_capture+0xe4>)
 80118f4:	681b      	ldr	r3, [r3, #0]
 80118f6:	4a1b      	ldr	r2, [pc, #108]	@ (8011964 <tim5_pwm_capture+0xe4>)
 80118f8:	f023 03aa 	bic.w	r3, r3, #170	@ 0xaa
 80118fc:	6013      	str	r3, [r2, #0]
	*TIM5_CCER |= ((1U << 0) | (1U << 4) | (1U << 5)); // CC1E=1 // CC2E=1// CC2P=1
 80118fe:	4b19      	ldr	r3, [pc, #100]	@ (8011964 <tim5_pwm_capture+0xe4>)
 8011900:	681b      	ldr	r3, [r3, #0]
 8011902:	4a18      	ldr	r2, [pc, #96]	@ (8011964 <tim5_pwm_capture+0xe4>)
 8011904:	f043 0331 	orr.w	r3, r3, #49	@ 0x31
 8011908:	6013      	str	r3, [r2, #0]

	// SMCR: Reset mode + Trigger = TI1FP1
	*TIM5_SMCR &= ~((7U << 4) | (7U << 0)); // TS:101(TI1FP1), SMS:100(Reset mode)
 801190a:	4b18      	ldr	r3, [pc, #96]	@ (801196c <tim5_pwm_capture+0xec>)
 801190c:	681b      	ldr	r3, [r3, #0]
 801190e:	4a17      	ldr	r2, [pc, #92]	@ (801196c <tim5_pwm_capture+0xec>)
 8011910:	f023 0377 	bic.w	r3, r3, #119	@ 0x77
 8011914:	6013      	str	r3, [r2, #0]
	*TIM5_SMCR |= (5U << 4) | (4U << 0);
 8011916:	4b15      	ldr	r3, [pc, #84]	@ (801196c <tim5_pwm_capture+0xec>)
 8011918:	681b      	ldr	r3, [r3, #0]
 801191a:	4a14      	ldr	r2, [pc, #80]	@ (801196c <tim5_pwm_capture+0xec>)
 801191c:	f043 0354 	orr.w	r3, r3, #84	@ 0x54
 8011920:	6013      	str	r3, [r2, #0]


	*TIM5_SR &= ~((1U << 1) | (1U << 2)); //CC1IF, CC2IF
 8011922:	4b13      	ldr	r3, [pc, #76]	@ (8011970 <tim5_pwm_capture+0xf0>)
 8011924:	681b      	ldr	r3, [r3, #0]
 8011926:	4a12      	ldr	r2, [pc, #72]	@ (8011970 <tim5_pwm_capture+0xf0>)
 8011928:	f023 0306 	bic.w	r3, r3, #6
 801192c:	6013      	str	r3, [r2, #0]

	*TIM5_EGR |= 1U;
 801192e:	4b11      	ldr	r3, [pc, #68]	@ (8011974 <tim5_pwm_capture+0xf4>)
 8011930:	681b      	ldr	r3, [r3, #0]
 8011932:	4a10      	ldr	r2, [pc, #64]	@ (8011974 <tim5_pwm_capture+0xf4>)
 8011934:	f043 0301 	orr.w	r3, r3, #1
 8011938:	6013      	str	r3, [r2, #0]

	*TIM5_CR1|=1U; //enable
 801193a:	4b06      	ldr	r3, [pc, #24]	@ (8011954 <tim5_pwm_capture+0xd4>)
 801193c:	681b      	ldr	r3, [r3, #0]
 801193e:	4a05      	ldr	r2, [pc, #20]	@ (8011954 <tim5_pwm_capture+0xd4>)
 8011940:	f043 0301 	orr.w	r3, r3, #1
 8011944:	6013      	str	r3, [r2, #0]

	return 0;
 8011946:	2300      	movs	r3, #0
}
 8011948:	4618      	mov	r0, r3
 801194a:	3708      	adds	r7, #8
 801194c:	46bd      	mov	sp, r7
 801194e:	bd80      	pop	{r7, pc}
 8011950:	40023840 	.word	0x40023840
 8011954:	40000c00 	.word	0x40000c00
 8011958:	431bde83 	.word	0x431bde83
 801195c:	40000c28 	.word	0x40000c28
 8011960:	40000c2c 	.word	0x40000c2c
 8011964:	40000c20 	.word	0x40000c20
 8011968:	40000c18 	.word	0x40000c18
 801196c:	40000c08 	.word	0x40000c08
 8011970:	40000c10 	.word	0x40000c10
 8011974:	40000c14 	.word	0x40000c14

08011978 <tim5_capture_get>:

int tim5_capture_get(uint32_t *ccr1 ,int ch){
 8011978:	b580      	push	{r7, lr}
 801197a:	b084      	sub	sp, #16
 801197c:	af00      	add	r7, sp, #0
 801197e:	6078      	str	r0, [r7, #4]
 8011980:	6039      	str	r1, [r7, #0]
	if (ch < 1 || ch > 4) return -1;
 8011982:	683b      	ldr	r3, [r7, #0]
 8011984:	2b00      	cmp	r3, #0
 8011986:	dd02      	ble.n	801198e <tim5_capture_get+0x16>
 8011988:	683b      	ldr	r3, [r7, #0]
 801198a:	2b04      	cmp	r3, #4
 801198c:	dd02      	ble.n	8011994 <tim5_capture_get+0x1c>
 801198e:	f04f 33ff 	mov.w	r3, #4294967295
 8011992:	e023      	b.n	80119dc <tim5_capture_get+0x64>
	volatile uint32_t *TIM5_CCR;
	uint32_t start = millis();
 8011994:	f000 f8ae 	bl	8011af4 <millis>
 8011998:	60f8      	str	r0, [r7, #12]

	    while (((*TIM5_SR) & (1U << ch)) == 0U) {
 801199a:	e00a      	b.n	80119b2 <tim5_capture_get+0x3a>
	        if ((uint32_t)(millis() - start) >= 1000) {
 801199c:	f000 f8aa 	bl	8011af4 <millis>
 80119a0:	4602      	mov	r2, r0
 80119a2:	68fb      	ldr	r3, [r7, #12]
 80119a4:	1ad3      	subs	r3, r2, r3
 80119a6:	f5b3 7f7a 	cmp.w	r3, #1000	@ 0x3e8
 80119aa:	d302      	bcc.n	80119b2 <tim5_capture_get+0x3a>
	            return -2;
 80119ac:	f06f 0301 	mvn.w	r3, #1
 80119b0:	e014      	b.n	80119dc <tim5_capture_get+0x64>
	    while (((*TIM5_SR) & (1U << ch)) == 0U) {
 80119b2:	4b0c      	ldr	r3, [pc, #48]	@ (80119e4 <tim5_capture_get+0x6c>)
 80119b4:	681a      	ldr	r2, [r3, #0]
 80119b6:	2101      	movs	r1, #1
 80119b8:	683b      	ldr	r3, [r7, #0]
 80119ba:	fa01 f303 	lsl.w	r3, r1, r3
 80119be:	4013      	ands	r3, r2
 80119c0:	2b00      	cmp	r3, #0
 80119c2:	d0eb      	beq.n	801199c <tim5_capture_get+0x24>
	        }
	    }
	    TIM5_CCR=((volatile uint32_t *)((uintptr_t)0x40000C00 + 0x30U + (4*ch)));
 80119c4:	683b      	ldr	r3, [r7, #0]
 80119c6:	009b      	lsls	r3, r3, #2
 80119c8:	f103 4380 	add.w	r3, r3, #1073741824	@ 0x40000000
 80119cc:	f503 6343 	add.w	r3, r3, #3120	@ 0xc30
 80119d0:	60bb      	str	r3, [r7, #8]
	    *ccr1 = *TIM5_CCR;
 80119d2:	68bb      	ldr	r3, [r7, #8]
 80119d4:	681a      	ldr	r2, [r3, #0]
 80119d6:	687b      	ldr	r3, [r7, #4]
 80119d8:	601a      	str	r2, [r3, #0]
	    return 0;
 80119da:	2300      	movs	r3, #0
}
 80119dc:	4618      	mov	r0, r3
 80119de:	3710      	adds	r7, #16
 80119e0:	46bd      	mov	sp, r7
 80119e2:	bd80      	pop	{r7, pc}
 80119e4:	40000c10 	.word	0x40000c10

080119e8 <tim5_freq_duty>:

void tim5_freq_duty(uint32_t *freq,uint32_t *duty,int ch){
 80119e8:	b580      	push	{r7, lr}
 80119ea:	b086      	sub	sp, #24
 80119ec:	af00      	add	r7, sp, #0
 80119ee:	60f8      	str	r0, [r7, #12]
 80119f0:	60b9      	str	r1, [r7, #8]
 80119f2:	607a      	str	r2, [r7, #4]
	uint32_t period;
	volatile uint32_t *Other_CCR;
	Other_CCR=((volatile uint32_t *)((uintptr_t)0x40000C00 + 0x30U + (4*(ch+1))));
 80119f4:	687b      	ldr	r3, [r7, #4]
 80119f6:	3301      	adds	r3, #1
 80119f8:	009b      	lsls	r3, r3, #2
 80119fa:	f103 4380 	add.w	r3, r3, #1073741824	@ 0x40000000
 80119fe:	f503 6343 	add.w	r3, r3, #3120	@ 0xc30
 8011a02:	617b      	str	r3, [r7, #20]
	if(tim5_capture_get(&period,ch)){while(1);}
 8011a04:	f107 0310 	add.w	r3, r7, #16
 8011a08:	6879      	ldr	r1, [r7, #4]
 8011a0a:	4618      	mov	r0, r3
 8011a0c:	f7ff ffb4 	bl	8011978 <tim5_capture_get>
 8011a10:	4603      	mov	r3, r0
 8011a12:	2b00      	cmp	r3, #0
 8011a14:	d001      	beq.n	8011a1a <tim5_freq_duty+0x32>
 8011a16:	bf00      	nop
 8011a18:	e7fd      	b.n	8011a16 <tim5_freq_duty+0x2e>
	*freq=1000000/period;
 8011a1a:	693b      	ldr	r3, [r7, #16]
 8011a1c:	4a09      	ldr	r2, [pc, #36]	@ (8011a44 <tim5_freq_duty+0x5c>)
 8011a1e:	fbb2 f2f3 	udiv	r2, r2, r3
 8011a22:	68fb      	ldr	r3, [r7, #12]
 8011a24:	601a      	str	r2, [r3, #0]
	*duty=((*Other_CCR)*100)/(period);
 8011a26:	697b      	ldr	r3, [r7, #20]
 8011a28:	681b      	ldr	r3, [r3, #0]
 8011a2a:	2264      	movs	r2, #100	@ 0x64
 8011a2c:	fb03 f202 	mul.w	r2, r3, r2
 8011a30:	693b      	ldr	r3, [r7, #16]
 8011a32:	fbb2 f2f3 	udiv	r2, r2, r3
 8011a36:	68bb      	ldr	r3, [r7, #8]
 8011a38:	601a      	str	r2, [r3, #0]
}
 8011a3a:	bf00      	nop
 8011a3c:	3718      	adds	r7, #24
 8011a3e:	46bd      	mov	sp, r7
 8011a40:	bd80      	pop	{r7, pc}
 8011a42:	bf00      	nop
 8011a44:	000f4240 	.word	0x000f4240

08011a48 <get_tim_clk>:

uint32_t get_tim_clk(void){
 8011a48:	b580      	push	{r7, lr}
 8011a4a:	b082      	sub	sp, #8
 8011a4c:	af00      	add	r7, sp, #0
	uint32_t tim_clk=0;
 8011a4e:	2300      	movs	r3, #0
 8011a50:	607b      	str	r3, [r7, #4]
		uint32_t pclk=0;
 8011a52:	2300      	movs	r3, #0
 8011a54:	603b      	str	r3, [r7, #0]
		//RM0090 155p
		if(*RCC_DCKCFGR&(1U<<24)){
 8011a56:	4b19      	ldr	r3, [pc, #100]	@ (8011abc <get_tim_clk+0x74>)
 8011a58:	681b      	ldr	r3, [r3, #0]
 8011a5a:	f003 7380 	and.w	r3, r3, #16777216	@ 0x1000000
 8011a5e:	2b00      	cmp	r3, #0
 8011a60:	d013      	beq.n	8011a8a <get_tim_clk+0x42>
			if(apb_tbl[(*RCC_CFGR & (7U << 10U)) >> 10U]<=4){
 8011a62:	4b17      	ldr	r3, [pc, #92]	@ (8011ac0 <get_tim_clk+0x78>)
 8011a64:	681b      	ldr	r3, [r3, #0]
 8011a66:	0a9b      	lsrs	r3, r3, #10
 8011a68:	f003 0307 	and.w	r3, r3, #7
 8011a6c:	4a15      	ldr	r2, [pc, #84]	@ (8011ac4 <get_tim_clk+0x7c>)
 8011a6e:	5cd3      	ldrb	r3, [r2, r3]
 8011a70:	2b04      	cmp	r3, #4
 8011a72:	d803      	bhi.n	8011a7c <get_tim_clk+0x34>
						tim_clk=get_hclk();
 8011a74:	f7fe fc78 	bl	8010368 <get_hclk>
 8011a78:	6078      	str	r0, [r7, #4]
 8011a7a:	e019      	b.n	8011ab0 <get_tim_clk+0x68>
					}
					else{
						pclk=get_pclk1();
 8011a7c:	f7fe fc80 	bl	8010380 <get_pclk1>
 8011a80:	6038      	str	r0, [r7, #0]
						tim_clk=pclk*4;
 8011a82:	683b      	ldr	r3, [r7, #0]
 8011a84:	009b      	lsls	r3, r3, #2
 8011a86:	607b      	str	r3, [r7, #4]
 8011a88:	e012      	b.n	8011ab0 <get_tim_clk+0x68>
					}
		}
		else{
			if(apb_tbl[(*RCC_CFGR & (7U << 10U)) >> 10U] ==1){
 8011a8a:	4b0d      	ldr	r3, [pc, #52]	@ (8011ac0 <get_tim_clk+0x78>)
 8011a8c:	681b      	ldr	r3, [r3, #0]
 8011a8e:	0a9b      	lsrs	r3, r3, #10
 8011a90:	f003 0307 	and.w	r3, r3, #7
 8011a94:	4a0b      	ldr	r2, [pc, #44]	@ (8011ac4 <get_tim_clk+0x7c>)
 8011a96:	5cd3      	ldrb	r3, [r2, r3]
 8011a98:	2b01      	cmp	r3, #1
 8011a9a:	d103      	bne.n	8011aa4 <get_tim_clk+0x5c>
				tim_clk=get_pclk1();
 8011a9c:	f7fe fc70 	bl	8010380 <get_pclk1>
 8011aa0:	6078      	str	r0, [r7, #4]
 8011aa2:	e005      	b.n	8011ab0 <get_tim_clk+0x68>

			}
			else{
				pclk=get_pclk1();
 8011aa4:	f7fe fc6c 	bl	8010380 <get_pclk1>
 8011aa8:	6038      	str	r0, [r7, #0]
				tim_clk=pclk*2;
 8011aaa:	683b      	ldr	r3, [r7, #0]
 8011aac:	005b      	lsls	r3, r3, #1
 8011aae:	607b      	str	r3, [r7, #4]

			}
		}
		return tim_clk;
 8011ab0:	687b      	ldr	r3, [r7, #4]
}
 8011ab2:	4618      	mov	r0, r3
 8011ab4:	3708      	adds	r7, #8
 8011ab6:	46bd      	mov	sp, r7
 8011ab8:	bd80      	pop	{r7, pc}
 8011aba:	bf00      	nop
 8011abc:	4002388c 	.word	0x4002388c
 8011ac0:	40023808 	.word	0x40023808
 8011ac4:	08011d2c 	.word	0x08011d2c

08011ac8 <delay>:
	*STK_VAL  = 0U;
	*STK_CTRL = 0x7U;
}


void delay(uint32_t ms){
 8011ac8:	b580      	push	{r7, lr}
 8011aca:	b084      	sub	sp, #16
 8011acc:	af00      	add	r7, sp, #0
 8011ace:	6078      	str	r0, [r7, #4]
	uint32_t start = millis();
 8011ad0:	f000 f810 	bl	8011af4 <millis>
 8011ad4:	60f8      	str	r0, [r7, #12]
	while ((uint32_t)(millis() - start) < ms) { }
 8011ad6:	bf00      	nop
 8011ad8:	f000 f80c 	bl	8011af4 <millis>
 8011adc:	4602      	mov	r2, r0
 8011ade:	68fb      	ldr	r3, [r7, #12]
 8011ae0:	1ad3      	subs	r3, r2, r3
 8011ae2:	687a      	ldr	r2, [r7, #4]
 8011ae4:	429a      	cmp	r2, r3
 8011ae6:	d8f7      	bhi.n	8011ad8 <delay+0x10>
}
 8011ae8:	bf00      	nop
 8011aea:	bf00      	nop
 8011aec:	3710      	adds	r7, #16
 8011aee:	46bd      	mov	sp, r7
 8011af0:	bd80      	pop	{r7, pc}
	...

08011af4 <millis>:


uint32_t millis(void){
 8011af4:	b480      	push	{r7}
 8011af6:	af00      	add	r7, sp, #0
	return sys_ms;
 8011af8:	4b03      	ldr	r3, [pc, #12]	@ (8011b08 <millis+0x14>)
 8011afa:	681b      	ldr	r3, [r3, #0]
}
 8011afc:	4618      	mov	r0, r3
 8011afe:	46bd      	mov	sp, r7
 8011b00:	f85d 7b04 	ldr.w	r7, [sp], #4
 8011b04:	4770      	bx	lr
 8011b06:	bf00      	nop
 8011b08:	20000038 	.word	0x20000038

08011b0c <USART6_INIT>:
#include "uart6.h"
#include "f429zi_reg.h"
#include "gpio.h"

//USART6(APB2) TX:PC6 RX:PC7 baud 115200
void USART6_INIT(void){
 8011b0c:	b580      	push	{r7, lr}
 8011b0e:	b086      	sub	sp, #24
 8011b10:	af00      	add	r7, sp, #0
	volatile uint32_t* GPIOC_MODER=
 8011b12:	4b24      	ldr	r3, [pc, #144]	@ (8011ba4 <USART6_INIT+0x98>)
 8011b14:	617b      	str	r3, [r7, #20]
			(volatile uint32_t*)((uintptr_t)GPIO_BASE_VAL + (GPIO_PORT_C * 0x400) + 0x00U);
	uint32_t const GPIO_MOD_Mask = (0xaU << (2U * 6U));
 8011b16:	f44f 4320 	mov.w	r3, #40960	@ 0xa000
 8011b1a:	613b      	str	r3, [r7, #16]
	uint32_t const GPIO_MOD_ClearMask = ~(0xfU << (2U * 6U));
 8011b1c:	f46f 4370 	mvn.w	r3, #61440	@ 0xf000
 8011b20:	60fb      	str	r3, [r7, #12]

	volatile uint32_t* GPIOC_AFRL=
 8011b22:	4b21      	ldr	r3, [pc, #132]	@ (8011ba8 <USART6_INIT+0x9c>)
 8011b24:	60bb      	str	r3, [r7, #8]
				(volatile uint32_t*)((uintptr_t)GPIO_BASE_VAL + (GPIO_PORT_C * 0x400) + 0x20U);
	uint32_t const GPIO_AFRL_Mask = (0x88U << 24U);
 8011b26:	f04f 4308 	mov.w	r3, #2281701376	@ 0x88000000
 8011b2a:	607b      	str	r3, [r7, #4]
	uint32_t const GPIO_AFRL_ClearMask = ~(0xffU << 24U);
 8011b2c:	f06f 437f 	mvn.w	r3, #4278190080	@ 0xff000000
 8011b30:	603b      	str	r3, [r7, #0]

	*APB2ENR |=(1U<<5);
 8011b32:	4b1e      	ldr	r3, [pc, #120]	@ (8011bac <USART6_INIT+0xa0>)
 8011b34:	681b      	ldr	r3, [r3, #0]
 8011b36:	4a1d      	ldr	r2, [pc, #116]	@ (8011bac <USART6_INIT+0xa0>)
 8011b38:	f043 0320 	orr.w	r3, r3, #32
 8011b3c:	6013      	str	r3, [r2, #0]
	GPIO_Enable(GPIO_PORT_C);
 8011b3e:	2002      	movs	r0, #2
 8011b40:	f7fe fede 	bl	8010900 <GPIO_Enable>
	*GPIOC_MODER= (*GPIOC_MODER & GPIO_MOD_ClearMask) | GPIO_MOD_Mask;
 8011b44:	697b      	ldr	r3, [r7, #20]
 8011b46:	681a      	ldr	r2, [r3, #0]
 8011b48:	68fb      	ldr	r3, [r7, #12]
 8011b4a:	401a      	ands	r2, r3
 8011b4c:	693b      	ldr	r3, [r7, #16]
 8011b4e:	431a      	orrs	r2, r3
 8011b50:	697b      	ldr	r3, [r7, #20]
 8011b52:	601a      	str	r2, [r3, #0]

	*GPIOC_AFRL= (*GPIOC_AFRL & GPIO_AFRL_ClearMask) | GPIO_AFRL_Mask;
 8011b54:	68bb      	ldr	r3, [r7, #8]
 8011b56:	681a      	ldr	r2, [r3, #0]
 8011b58:	683b      	ldr	r3, [r7, #0]
 8011b5a:	401a      	ands	r2, r3
 8011b5c:	687b      	ldr	r3, [r7, #4]
 8011b5e:	431a      	orrs	r2, r3
 8011b60:	68bb      	ldr	r3, [r7, #8]
 8011b62:	601a      	str	r2, [r3, #0]

	*USART6_CR1 = (1U<<13); //set UE bit =1 Enable ,M bit =0 1S 8D nST  ;
 8011b64:	4b12      	ldr	r3, [pc, #72]	@ (8011bb0 <USART6_INIT+0xa4>)
 8011b66:	f44f 5200 	mov.w	r2, #8192	@ 0x2000
 8011b6a:	601a      	str	r2, [r3, #0]

	*USART6_CR2&= ~(3U<<12); // 1 STOP bits
 8011b6c:	4b11      	ldr	r3, [pc, #68]	@ (8011bb4 <USART6_INIT+0xa8>)
 8011b6e:	681b      	ldr	r3, [r3, #0]
 8011b70:	4a10      	ldr	r2, [pc, #64]	@ (8011bb4 <USART6_INIT+0xa8>)
 8011b72:	f423 5340 	bic.w	r3, r3, #12288	@ 0x3000
 8011b76:	6013      	str	r3, [r2, #0]

	uart_set_baud(USART6_BRR, USART6_CR1, 115200);
 8011b78:	f44f 32e1 	mov.w	r2, #115200	@ 0x1c200
 8011b7c:	490c      	ldr	r1, [pc, #48]	@ (8011bb0 <USART6_INIT+0xa4>)
 8011b7e:	480e      	ldr	r0, [pc, #56]	@ (8011bb8 <USART6_INIT+0xac>)
 8011b80:	f000 f854 	bl	8011c2c <uart_set_baud>

	*USART6_CR1 |=(1U<<3); //SET TE bit == TX ON
 8011b84:	4b0a      	ldr	r3, [pc, #40]	@ (8011bb0 <USART6_INIT+0xa4>)
 8011b86:	681b      	ldr	r3, [r3, #0]
 8011b88:	4a09      	ldr	r2, [pc, #36]	@ (8011bb0 <USART6_INIT+0xa4>)
 8011b8a:	f043 0308 	orr.w	r3, r3, #8
 8011b8e:	6013      	str	r3, [r2, #0]

	*USART6_CR1 |=(1U<<2); //SET RE bit == RX ON
 8011b90:	4b07      	ldr	r3, [pc, #28]	@ (8011bb0 <USART6_INIT+0xa4>)
 8011b92:	681b      	ldr	r3, [r3, #0]
 8011b94:	4a06      	ldr	r2, [pc, #24]	@ (8011bb0 <USART6_INIT+0xa4>)
 8011b96:	f043 0304 	orr.w	r3, r3, #4
 8011b9a:	6013      	str	r3, [r2, #0]
}
 8011b9c:	bf00      	nop
 8011b9e:	3718      	adds	r7, #24
 8011ba0:	46bd      	mov	sp, r7
 8011ba2:	bd80      	pop	{r7, pc}
 8011ba4:	40020800 	.word	0x40020800
 8011ba8:	40020820 	.word	0x40020820
 8011bac:	40023844 	.word	0x40023844
 8011bb0:	4001140c 	.word	0x4001140c
 8011bb4:	40011410 	.word	0x40011410
 8011bb8:	40011408 	.word	0x40011408

08011bbc <uart_puts>:
	while((*USART6_SR & (1U << 6)) == 0U); //TC

	return 0;
}

int uart_puts(const char *msg){
 8011bbc:	b480      	push	{r7}
 8011bbe:	b083      	sub	sp, #12
 8011bc0:	af00      	add	r7, sp, #0
 8011bc2:	6078      	str	r0, [r7, #4]

	while (*msg != '\0') {
 8011bc4:	e01b      	b.n	8011bfe <uart_puts+0x42>
		if (*msg == '\n') {
 8011bc6:	687b      	ldr	r3, [r7, #4]
 8011bc8:	781b      	ldrb	r3, [r3, #0]
 8011bca:	2b0a      	cmp	r3, #10
 8011bcc:	d109      	bne.n	8011be2 <uart_puts+0x26>
			while ((*USART6_SR & (1U << 7)) == 0U);
 8011bce:	bf00      	nop
 8011bd0:	4b14      	ldr	r3, [pc, #80]	@ (8011c24 <uart_puts+0x68>)
 8011bd2:	681b      	ldr	r3, [r3, #0]
 8011bd4:	f003 0380 	and.w	r3, r3, #128	@ 0x80
 8011bd8:	2b00      	cmp	r3, #0
 8011bda:	d0f9      	beq.n	8011bd0 <uart_puts+0x14>
			*USART6_DR = '\r';
 8011bdc:	4b12      	ldr	r3, [pc, #72]	@ (8011c28 <uart_puts+0x6c>)
 8011bde:	220d      	movs	r2, #13
 8011be0:	601a      	str	r2, [r3, #0]
		}
		while ((*USART6_SR & (1U << 7)) == 0U);
 8011be2:	bf00      	nop
 8011be4:	4b0f      	ldr	r3, [pc, #60]	@ (8011c24 <uart_puts+0x68>)
 8011be6:	681b      	ldr	r3, [r3, #0]
 8011be8:	f003 0380 	and.w	r3, r3, #128	@ 0x80
 8011bec:	2b00      	cmp	r3, #0
 8011bee:	d0f9      	beq.n	8011be4 <uart_puts+0x28>
		*USART6_DR = *msg;
 8011bf0:	687b      	ldr	r3, [r7, #4]
 8011bf2:	781a      	ldrb	r2, [r3, #0]
 8011bf4:	4b0c      	ldr	r3, [pc, #48]	@ (8011c28 <uart_puts+0x6c>)
 8011bf6:	601a      	str	r2, [r3, #0]

		msg++;
 8011bf8:	687b      	ldr	r3, [r7, #4]
 8011bfa:	3301      	adds	r3, #1
 8011bfc:	607b      	str	r3, [r7, #4]
	while (*msg != '\0') {
 8011bfe:	687b      	ldr	r3, [r7, #4]
 8011c00:	781b      	ldrb	r3, [r3, #0]
 8011c02:	2b00      	cmp	r3, #0
 8011c04:	d1df      	bne.n	8011bc6 <uart_puts+0xa>
	}

	while((*USART6_SR & (1U << 6)) == 0U);
 8011c06:	bf00      	nop
 8011c08:	4b06      	ldr	r3, [pc, #24]	@ (8011c24 <uart_puts+0x68>)
 8011c0a:	681b      	ldr	r3, [r3, #0]
 8011c0c:	f003 0340 	and.w	r3, r3, #64	@ 0x40
 8011c10:	2b00      	cmp	r3, #0
 8011c12:	d0f9      	beq.n	8011c08 <uart_puts+0x4c>

	return 0;
 8011c14:	2300      	movs	r3, #0

}
 8011c16:	4618      	mov	r0, r3
 8011c18:	370c      	adds	r7, #12
 8011c1a:	46bd      	mov	sp, r7
 8011c1c:	f85d 7b04 	ldr.w	r7, [sp], #4
 8011c20:	4770      	bx	lr
 8011c22:	bf00      	nop
 8011c24:	40011400 	.word	0x40011400
 8011c28:	40011404 	.word	0x40011404

08011c2c <uart_set_baud>:
}

// USART1,6 APB2 else APB1
int uart_set_baud(volatile uint32_t *brr_reg,
                  volatile uint32_t *cr1_reg,
                  uint32_t baud){
 8011c2c:	b580      	push	{r7, lr}
 8011c2e:	b08c      	sub	sp, #48	@ 0x30
 8011c30:	af00      	add	r7, sp, #0
 8011c32:	60f8      	str	r0, [r7, #12]
 8011c34:	60b9      	str	r1, [r7, #8]
 8011c36:	607a      	str	r2, [r7, #4]

	uint32_t fck=get_pclk2();
 8011c38:	f7fe fbae 	bl	8010398 <get_pclk2>
 8011c3c:	4603      	mov	r3, r0
 8011c3e:	62fb      	str	r3, [r7, #44]	@ 0x2c

	uint32_t over8 = ((*cr1_reg >> 15U) & 0x1U);
 8011c40:	68bb      	ldr	r3, [r7, #8]
 8011c42:	681b      	ldr	r3, [r3, #0]
 8011c44:	0bdb      	lsrs	r3, r3, #15
 8011c46:	f003 0301 	and.w	r3, r3, #1
 8011c4a:	62bb      	str	r3, [r7, #40]	@ 0x28

	    if (over8 == 0U) {
 8011c4c:	6abb      	ldr	r3, [r7, #40]	@ 0x28
 8011c4e:	2b00      	cmp	r3, #0
 8011c50:	d117      	bne.n	8011c82 <uart_set_baud+0x56>
	        // oversampling by 16
	        uint32_t usartdiv16 = (fck + (baud / 2U)) / baud;  // USARTDIV*16+rounded
 8011c52:	687b      	ldr	r3, [r7, #4]
 8011c54:	085a      	lsrs	r2, r3, #1
 8011c56:	6afb      	ldr	r3, [r7, #44]	@ 0x2c
 8011c58:	441a      	add	r2, r3
 8011c5a:	687b      	ldr	r3, [r7, #4]
 8011c5c:	fbb2 f3f3 	udiv	r3, r2, r3
 8011c60:	61bb      	str	r3, [r7, #24]
	        uint32_t mantissa   = usartdiv16 / 16U;
 8011c62:	69bb      	ldr	r3, [r7, #24]
 8011c64:	091b      	lsrs	r3, r3, #4
 8011c66:	617b      	str	r3, [r7, #20]
	        uint32_t fraction   = usartdiv16 % 16U;
 8011c68:	69bb      	ldr	r3, [r7, #24]
 8011c6a:	f003 030f 	and.w	r3, r3, #15
 8011c6e:	613b      	str	r3, [r7, #16]
	        *brr_reg = (mantissa << 4U) | (fraction & 0xFU);
 8011c70:	697b      	ldr	r3, [r7, #20]
 8011c72:	011a      	lsls	r2, r3, #4
 8011c74:	693b      	ldr	r3, [r7, #16]
 8011c76:	f003 030f 	and.w	r3, r3, #15
 8011c7a:	431a      	orrs	r2, r3
 8011c7c:	68fb      	ldr	r3, [r7, #12]
 8011c7e:	601a      	str	r2, [r3, #0]
 8011c80:	e016      	b.n	8011cb0 <uart_set_baud+0x84>
	    } else {
	        // oversampling by 8
	        uint32_t usartdiv8 = (fck + (baud / 2U)) / baud;   // USARTDIV*8+rounded
 8011c82:	687b      	ldr	r3, [r7, #4]
 8011c84:	085a      	lsrs	r2, r3, #1
 8011c86:	6afb      	ldr	r3, [r7, #44]	@ 0x2c
 8011c88:	441a      	add	r2, r3
 8011c8a:	687b      	ldr	r3, [r7, #4]
 8011c8c:	fbb2 f3f3 	udiv	r3, r2, r3
 8011c90:	627b      	str	r3, [r7, #36]	@ 0x24
	        uint32_t mantissa  = usartdiv8 / 8U;
 8011c92:	6a7b      	ldr	r3, [r7, #36]	@ 0x24
 8011c94:	08db      	lsrs	r3, r3, #3
 8011c96:	623b      	str	r3, [r7, #32]
	        uint32_t fraction  = usartdiv8 % 8U;
 8011c98:	6a7b      	ldr	r3, [r7, #36]	@ 0x24
 8011c9a:	f003 0307 	and.w	r3, r3, #7
 8011c9e:	61fb      	str	r3, [r7, #28]

	        *brr_reg = (mantissa << 4U) | (fraction & 0x7U);
 8011ca0:	6a3b      	ldr	r3, [r7, #32]
 8011ca2:	011a      	lsls	r2, r3, #4
 8011ca4:	69fb      	ldr	r3, [r7, #28]
 8011ca6:	f003 0307 	and.w	r3, r3, #7
 8011caa:	431a      	orrs	r2, r3
 8011cac:	68fb      	ldr	r3, [r7, #12]
 8011cae:	601a      	str	r2, [r3, #0]
	    }


	return 0;
 8011cb0:	2300      	movs	r3, #0
}
 8011cb2:	4618      	mov	r0, r3
 8011cb4:	3730      	adds	r7, #48	@ 0x30
 8011cb6:	46bd      	mov	sp, r7
 8011cb8:	bd80      	pop	{r7, pc}

08011cba <memset>:
 8011cba:	4402      	add	r2, r0
 8011cbc:	4603      	mov	r3, r0
 8011cbe:	4293      	cmp	r3, r2
 8011cc0:	d100      	bne.n	8011cc4 <memset+0xa>
 8011cc2:	4770      	bx	lr
 8011cc4:	f803 1b01 	strb.w	r1, [r3], #1
 8011cc8:	e7f9      	b.n	8011cbe <memset+0x4>
	...

08011ccc <__libc_init_array>:
 8011ccc:	b570      	push	{r4, r5, r6, lr}
 8011cce:	4d0d      	ldr	r5, [pc, #52]	@ (8011d04 <__libc_init_array+0x38>)
 8011cd0:	4c0d      	ldr	r4, [pc, #52]	@ (8011d08 <__libc_init_array+0x3c>)
 8011cd2:	1b64      	subs	r4, r4, r5
 8011cd4:	10a4      	asrs	r4, r4, #2
 8011cd6:	2600      	movs	r6, #0
 8011cd8:	42a6      	cmp	r6, r4
 8011cda:	d109      	bne.n	8011cf0 <__libc_init_array+0x24>
 8011cdc:	4d0b      	ldr	r5, [pc, #44]	@ (8011d0c <__libc_init_array+0x40>)
 8011cde:	4c0c      	ldr	r4, [pc, #48]	@ (8011d10 <__libc_init_array+0x44>)
 8011ce0:	f000 f818 	bl	8011d14 <_init>
 8011ce4:	1b64      	subs	r4, r4, r5
 8011ce6:	10a4      	asrs	r4, r4, #2
 8011ce8:	2600      	movs	r6, #0
 8011cea:	42a6      	cmp	r6, r4
 8011cec:	d105      	bne.n	8011cfa <__libc_init_array+0x2e>
 8011cee:	bd70      	pop	{r4, r5, r6, pc}
 8011cf0:	f855 3b04 	ldr.w	r3, [r5], #4
 8011cf4:	4798      	blx	r3
 8011cf6:	3601      	adds	r6, #1
 8011cf8:	e7ee      	b.n	8011cd8 <__libc_init_array+0xc>
 8011cfa:	f855 3b04 	ldr.w	r3, [r5], #4
 8011cfe:	4798      	blx	r3
 8011d00:	3601      	adds	r6, #1
 8011d02:	e7f2      	b.n	8011cea <__libc_init_array+0x1e>
 8011d04:	08011d5c 	.word	0x08011d5c
 8011d08:	08011d5c 	.word	0x08011d5c
 8011d0c:	08011d5c 	.word	0x08011d5c
 8011d10:	08011d60 	.word	0x08011d60

08011d14 <_init>:
 8011d14:	b5f8      	push	{r3, r4, r5, r6, r7, lr}
 8011d16:	bf00      	nop
 8011d18:	bcf8      	pop	{r3, r4, r5, r6, r7}
 8011d1a:	bc08      	pop	{r3}
 8011d1c:	469e      	mov	lr, r3
 8011d1e:	4770      	bx	lr

08011d20 <_fini>:
 8011d20:	b5f8      	push	{r3, r4, r5, r6, r7, lr}
 8011d22:	bf00      	nop
 8011d24:	bcf8      	pop	{r3, r4, r5, r6, r7}
 8011d26:	bc08      	pop	{r3}
 8011d28:	469e      	mov	lr, r3
 8011d2a:	4770      	bx	lr
